
RealTimeClock.elf:     file format elf32-avr

Sections:
Idx Name          Size      VMA       LMA       File off  Algn
  0 .text         00000c06  00000000  00000000  00000094  2**1
                  CONTENTS, ALLOC, LOAD, READONLY, CODE
  1 .data         000000a2  00800060  00000c06  00000c9a  2**0
                  CONTENTS, ALLOC, LOAD, DATA
  2 .bss          00000008  00800102  00800102  00000d3c  2**0
                  ALLOC
  3 .comment      00000030  00000000  00000000  00000d3c  2**0
                  CONTENTS, READONLY
  4 .note.gnu.avr.deviceinfo 0000003c  00000000  00000000  00000d6c  2**2
                  CONTENTS, READONLY
  5 .debug_aranges 00000178  00000000  00000000  00000da8  2**0
                  CONTENTS, READONLY, DEBUGGING
  6 .debug_info   00001c1d  00000000  00000000  00000f20  2**0
                  CONTENTS, READONLY, DEBUGGING
  7 .debug_abbrev 00000a6a  00000000  00000000  00002b3d  2**0
                  CONTENTS, READONLY, DEBUGGING
  8 .debug_line   00001072  00000000  00000000  000035a7  2**0
                  CONTENTS, READONLY, DEBUGGING
  9 .debug_frame  000002bc  00000000  00000000  0000461c  2**2
                  CONTENTS, READONLY, DEBUGGING
 10 .debug_str    00000666  00000000  00000000  000048d8  2**0
                  CONTENTS, READONLY, DEBUGGING
 11 .debug_loc    00000f04  00000000  00000000  00004f3e  2**0
                  CONTENTS, READONLY, DEBUGGING
 12 .debug_ranges 00000118  00000000  00000000  00005e42  2**0
                  CONTENTS, READONLY, DEBUGGING

Disassembly of section .text:

00000000 <__vectors>:
   0:	0c 94 2a 00 	jmp	0x54	; 0x54 <__ctors_end>
   4:	0c 94 47 00 	jmp	0x8e	; 0x8e <__bad_interrupt>
   8:	0c 94 47 00 	jmp	0x8e	; 0x8e <__bad_interrupt>
   c:	0c 94 47 00 	jmp	0x8e	; 0x8e <__bad_interrupt>
  10:	0c 94 47 00 	jmp	0x8e	; 0x8e <__bad_interrupt>
  14:	0c 94 23 02 	jmp	0x446	; 0x446 <__vector_5>
  18:	0c 94 47 00 	jmp	0x8e	; 0x8e <__bad_interrupt>
  1c:	0c 94 47 00 	jmp	0x8e	; 0x8e <__bad_interrupt>
  20:	0c 94 47 00 	jmp	0x8e	; 0x8e <__bad_interrupt>
  24:	0c 94 47 00 	jmp	0x8e	; 0x8e <__bad_interrupt>
  28:	0c 94 47 00 	jmp	0x8e	; 0x8e <__bad_interrupt>
  2c:	0c 94 47 00 	jmp	0x8e	; 0x8e <__bad_interrupt>
  30:	0c 94 47 00 	jmp	0x8e	; 0x8e <__bad_interrupt>
  34:	0c 94 47 00 	jmp	0x8e	; 0x8e <__bad_interrupt>
  38:	0c 94 47 00 	jmp	0x8e	; 0x8e <__bad_interrupt>
  3c:	0c 94 47 00 	jmp	0x8e	; 0x8e <__bad_interrupt>
  40:	0c 94 47 00 	jmp	0x8e	; 0x8e <__bad_interrupt>
  44:	0c 94 47 00 	jmp	0x8e	; 0x8e <__bad_interrupt>
  48:	0c 94 47 00 	jmp	0x8e	; 0x8e <__bad_interrupt>
  4c:	0c 94 47 00 	jmp	0x8e	; 0x8e <__bad_interrupt>
  50:	0c 94 47 00 	jmp	0x8e	; 0x8e <__bad_interrupt>

00000054 <__ctors_end>:
  54:	11 24       	eor	r1, r1
  56:	1f be       	out	0x3f, r1	; 63
  58:	cf e5       	ldi	r28, 0x5F	; 95
  5a:	d8 e0       	ldi	r29, 0x08	; 8
  5c:	de bf       	out	0x3e, r29	; 62
  5e:	cd bf       	out	0x3d, r28	; 61

00000060 <__do_copy_data>:
  60:	11 e0       	ldi	r17, 0x01	; 1
  62:	a0 e6       	ldi	r26, 0x60	; 96
  64:	b0 e0       	ldi	r27, 0x00	; 0
  66:	e6 e0       	ldi	r30, 0x06	; 6
  68:	fc e0       	ldi	r31, 0x0C	; 12
  6a:	02 c0       	rjmp	.+4      	; 0x70 <__do_copy_data+0x10>
  6c:	05 90       	lpm	r0, Z+
  6e:	0d 92       	st	X+, r0
  70:	a2 30       	cpi	r26, 0x02	; 2
  72:	b1 07       	cpc	r27, r17
  74:	d9 f7       	brne	.-10     	; 0x6c <__do_copy_data+0xc>

00000076 <__do_clear_bss>:
  76:	21 e0       	ldi	r18, 0x01	; 1
  78:	a2 e0       	ldi	r26, 0x02	; 2
  7a:	b1 e0       	ldi	r27, 0x01	; 1
  7c:	01 c0       	rjmp	.+2      	; 0x80 <.do_clear_bss_start>

0000007e <.do_clear_bss_loop>:
  7e:	1d 92       	st	X+, r1

00000080 <.do_clear_bss_start>:
  80:	aa 30       	cpi	r26, 0x0A	; 10
  82:	b2 07       	cpc	r27, r18
  84:	e1 f7       	brne	.-8      	; 0x7e <.do_clear_bss_loop>
  86:	0e 94 7e 00 	call	0xfc	; 0xfc <main>
  8a:	0c 94 01 06 	jmp	0xc02	; 0xc02 <_exit>

0000008e <__bad_interrupt>:
  8e:	0c 94 00 00 	jmp	0	; 0x0 <__vectors>

00000092 <get_two_digits>:
/**
 * @brief  Get a two-digit number from the user via Keypad.
 * @param  result Pointer to store the result.
 * @return None
 */
void get_two_digits(unsigned char *result) {
  92:	cf 93       	push	r28
  94:	df 93       	push	r29
  96:	ec 01       	movw	r28, r24
  do {
    first_digit = keypad_u8check_press();
  98:	0e 94 91 02 	call	0x522	; 0x522 <keypad_u8check_press>
  9c:	80 93 07 01 	sts	0x0107, r24	; 0x800107 <first_digit>
  } while (first_digit == NOTPRESSED);
  a0:	8f 3f       	cpi	r24, 0xFF	; 255
  a2:	d1 f3       	breq	.-12     	; 0x98 <get_two_digits+0x6>
  LCD_vSend_char(first_digit);
  a4:	0e 94 7f 03 	call	0x6fe	; 0x6fe <LCD_vSend_char>
	#else
		//round up by default
		__ticks_dc = (uint32_t)(ceil(fabs(__tmp)));
	#endif

	__builtin_avr_delay_cycles(__ticks_dc);
  a8:	2f ef       	ldi	r18, 0xFF	; 255
  aa:	81 ee       	ldi	r24, 0xE1	; 225
  ac:	94 e0       	ldi	r25, 0x04	; 4
  ae:	21 50       	subi	r18, 0x01	; 1
  b0:	80 40       	sbci	r24, 0x00	; 0
  b2:	90 40       	sbci	r25, 0x00	; 0
  b4:	e1 f7       	brne	.-8      	; 0xae <get_two_digits+0x1c>
  b6:	00 c0       	rjmp	.+0      	; 0xb8 <get_two_digits+0x26>
  b8:	00 00       	nop
  _delay_ms(200);

  do {
    second_digit = keypad_u8check_press();
  ba:	0e 94 91 02 	call	0x522	; 0x522 <keypad_u8check_press>
  be:	80 93 08 01 	sts	0x0108, r24	; 0x800108 <second_digit>
  } while (second_digit == NOTPRESSED);
  c2:	8f 3f       	cpi	r24, 0xFF	; 255
  c4:	d1 f3       	breq	.-12     	; 0xba <get_two_digits+0x28>
  LCD_vSend_char(second_digit);
  c6:	0e 94 7f 03 	call	0x6fe	; 0x6fe <LCD_vSend_char>
  ca:	2f ef       	ldi	r18, 0xFF	; 255
  cc:	81 ee       	ldi	r24, 0xE1	; 225
  ce:	94 e0       	ldi	r25, 0x04	; 4
  d0:	21 50       	subi	r18, 0x01	; 1
  d2:	80 40       	sbci	r24, 0x00	; 0
  d4:	90 40       	sbci	r25, 0x00	; 0
  d6:	e1 f7       	brne	.-8      	; 0xd0 <get_two_digits+0x3e>
  d8:	00 c0       	rjmp	.+0      	; 0xda <get_two_digits+0x48>
  da:	00 00       	nop
  _delay_ms(200);

  *result = (second_digit - '0') + 10 * (first_digit - '0');
  dc:	80 91 07 01 	lds	r24, 0x0107	; 0x800107 <first_digit>
  e0:	88 0f       	add	r24, r24
  e2:	80 56       	subi	r24, 0x60	; 96
  e4:	98 2f       	mov	r25, r24
  e6:	99 0f       	add	r25, r25
  e8:	99 0f       	add	r25, r25
  ea:	89 0f       	add	r24, r25
  ec:	90 91 08 01 	lds	r25, 0x0108	; 0x800108 <second_digit>
  f0:	90 53       	subi	r25, 0x30	; 48
  f2:	89 0f       	add	r24, r25
  f4:	88 83       	st	Y, r24
}
  f6:	df 91       	pop	r29
  f8:	cf 91       	pop	r28
  fa:	08 95       	ret

000000fc <main>:
/**
 * @brief  Main function of the application.
 * @param  None
 * @return return int (standard for main, though never returns in embedded)
 */
int main(void) {
  fc:	cf 93       	push	r28
  fe:	df 93       	push	r29
 100:	1f 92       	push	r1
 102:	cd b7       	in	r28, 0x3d	; 61
 104:	de b7       	in	r29, 0x3e	; 62
  keypad_vInit();
 106:	0e 94 54 02 	call	0x4a8	; 0x4a8 <keypad_vInit>
  LCD_vInit();
 10a:	0e 94 20 03 	call	0x640	; 0x640 <LCD_vInit>
  seven_seg_vinit('B');
 10e:	82 e4       	ldi	r24, 0x42	; 66
 110:	0e 94 d9 03 	call	0x7b2	; 0x7b2 <seven_seg_vinit>
  DDRC |= 0b00111111;
 114:	84 b3       	in	r24, 0x14	; 20
 116:	8f 63       	ori	r24, 0x3F	; 63
 118:	84 bb       	out	0x14, r24	; 20

  timer2_overflow_init_interrupt();
 11a:	0e 94 f3 05 	call	0xbe6	; 0xbe6 <timer2_overflow_init_interrupt>
  sei();
 11e:	78 94       	sei
    get_two_digits(&seconds_counter);

    // ===================== Final LCD =====================
    LCD_clearscreen();
    if (mode == 12) {
      LCD_vSend_string(am_pm ? "Mode: PM" : "Mode: AM");
 120:	0f 2e       	mov	r0, r31
 122:	fb e7       	ldi	r31, 0x7B	; 123
 124:	ef 2e       	mov	r14, r31
 126:	f0 e0       	ldi	r31, 0x00	; 0
 128:	ff 2e       	mov	r15, r31
 12a:	f0 2d       	mov	r31, r0
      value = keypad_u8check_press();
      if (value == '0')
        break;

      // Multiplexing
      PORTC = 0b111110;
 12c:	0f 2e       	mov	r0, r31
 12e:	fe e3       	ldi	r31, 0x3E	; 62
 130:	9f 2e       	mov	r9, r31
 132:	f0 2d       	mov	r31, r0
      seven_seg_write('B', seconds_counter % 10);
 134:	1d ec       	ldi	r17, 0xCD	; 205
      _delay_ms(2);

      PORTC = 0b111101;
 136:	0f 2e       	mov	r0, r31
 138:	fd e3       	ldi	r31, 0x3D	; 61
 13a:	af 2e       	mov	r10, r31
 13c:	f0 2d       	mov	r31, r0
      seven_seg_write('B', seconds_counter / 10);
      _delay_ms(2);

      PORTC = 0b111011;
 13e:	0f 2e       	mov	r0, r31
 140:	fb e3       	ldi	r31, 0x3B	; 59
 142:	bf 2e       	mov	r11, r31
 144:	f0 2d       	mov	r31, r0
      seven_seg_write('B', minutes_counter % 10);
      _delay_ms(2);

      PORTC = 0b110111;
 146:	0f 2e       	mov	r0, r31
 148:	f7 e3       	ldi	r31, 0x37	; 55
 14a:	cf 2e       	mov	r12, r31
 14c:	f0 2d       	mov	r31, r0
          {
            am_pm ^= 1;
            ampm_changed = 1;

            LCD_clearscreen();
            LCD_vSend_string(am_pm ? "Mode: PM" : "Mode: AM");
 14e:	7e 2c       	mov	r7, r14
 150:	8f 2c       	mov	r8, r15
  timer2_overflow_init_interrupt();
  sei();

  while (1) {
    // ===================== CHOOSE MODE =====================
    LCD_clearscreen();
 152:	0e 94 b0 03 	call	0x760	; 0x760 <LCD_clearscreen>
    LCD_vSend_string("1-12h   2-24h");
 156:	8d e8       	ldi	r24, 0x8D	; 141
 158:	90 e0       	ldi	r25, 0x00	; 0
 15a:	0e 94 a1 03 	call	0x742	; 0x742 <LCD_vSend_string>
    LCD_movecursor(2, 1);
 15e:	61 e0       	ldi	r22, 0x01	; 1
 160:	82 e0       	ldi	r24, 0x02	; 2
 162:	0e 94 ba 03 	call	0x774	; 0x774 <LCD_movecursor>
    LCD_vSend_string("Choose mode");
 166:	8b e9       	ldi	r24, 0x9B	; 155
 168:	90 e0       	ldi	r25, 0x00	; 0
 16a:	0e 94 a1 03 	call	0x742	; 0x742 <LCD_vSend_string>

    while (1) {
      value = keypad_u8check_press();
 16e:	0e 94 91 02 	call	0x522	; 0x522 <keypad_u8check_press>
 172:	80 93 09 01 	sts	0x0109, r24	; 0x800109 <value>
      if (value == '1') {
 176:	81 33       	cpi	r24, 0x31	; 49
 178:	21 f4       	brne	.+8      	; 0x182 <main+0x86>
        mode = 12;
 17a:	8c e0       	ldi	r24, 0x0C	; 12
 17c:	80 93 60 00 	sts	0x0060, r24	; 0x800060 <__DATA_REGION_ORIGIN__>
        break;
 180:	05 c0       	rjmp	.+10     	; 0x18c <main+0x90>
      }
      if (value == '2') {
 182:	82 33       	cpi	r24, 0x32	; 50
 184:	a1 f7       	brne	.-24     	; 0x16e <main+0x72>
        mode = 24;
 186:	88 e1       	ldi	r24, 0x18	; 24
 188:	80 93 60 00 	sts	0x0060, r24	; 0x800060 <__DATA_REGION_ORIGIN__>
        break;
      }
    }

    while (keypad_u8check_press() != NOTPRESSED)
 18c:	0e 94 91 02 	call	0x522	; 0x522 <keypad_u8check_press>
 190:	8f 3f       	cpi	r24, 0xFF	; 255
 192:	e1 f7       	brne	.-8      	; 0x18c <main+0x90>
      ;

    // ================== ASK AM/PM (if 12h) ==================
    if (mode == 12) {
 194:	80 91 60 00 	lds	r24, 0x0060	; 0x800060 <__DATA_REGION_ORIGIN__>
 198:	8c 30       	cpi	r24, 0x0C	; 12
 19a:	c1 f4       	brne	.+48     	; 0x1cc <main+0xd0>
      LCD_clearscreen();
 19c:	0e 94 b0 03 	call	0x760	; 0x760 <LCD_clearscreen>
      LCD_vSend_string("1=AM   2=PM");
 1a0:	87 ea       	ldi	r24, 0xA7	; 167
 1a2:	90 e0       	ldi	r25, 0x00	; 0
 1a4:	0e 94 a1 03 	call	0x742	; 0x742 <LCD_vSend_string>

      while (1) {
        value = keypad_u8check_press();
 1a8:	0e 94 91 02 	call	0x522	; 0x522 <keypad_u8check_press>
 1ac:	80 93 09 01 	sts	0x0109, r24	; 0x800109 <value>
        if (value == '1') {
 1b0:	81 33       	cpi	r24, 0x31	; 49
 1b2:	19 f4       	brne	.+6      	; 0x1ba <main+0xbe>
          am_pm = 0;
 1b4:	10 92 03 01 	sts	0x0103, r1	; 0x800103 <am_pm>
          break;
 1b8:	05 c0       	rjmp	.+10     	; 0x1c4 <main+0xc8>
        }
        if (value == '2') {
 1ba:	82 33       	cpi	r24, 0x32	; 50
 1bc:	a9 f7       	brne	.-22     	; 0x1a8 <main+0xac>
          am_pm = 1;
 1be:	81 e0       	ldi	r24, 0x01	; 1
 1c0:	80 93 03 01 	sts	0x0103, r24	; 0x800103 <am_pm>
          break;
        }
      }
      while (keypad_u8check_press() != NOTPRESSED)
 1c4:	0e 94 91 02 	call	0x522	; 0x522 <keypad_u8check_press>
 1c8:	8f 3f       	cpi	r24, 0xFF	; 255
 1ca:	e1 f7       	brne	.-8      	; 0x1c4 <main+0xc8>
        ;
    }

    // ================= SET HOURS =================
    LCD_clearscreen();
 1cc:	0e 94 b0 03 	call	0x760	; 0x760 <LCD_clearscreen>
    LCD_vSend_string("Set Hours:");
 1d0:	83 eb       	ldi	r24, 0xB3	; 179
 1d2:	90 e0       	ldi	r25, 0x00	; 0
 1d4:	0e 94 a1 03 	call	0x742	; 0x742 <LCD_vSend_string>
    LCD_movecursor(2, 1);
 1d8:	61 e0       	ldi	r22, 0x01	; 1
 1da:	82 e0       	ldi	r24, 0x02	; 2
 1dc:	0e 94 ba 03 	call	0x774	; 0x774 <LCD_movecursor>

    unsigned char hrs;
    while (1) {
      get_two_digits(&hrs);
 1e0:	ce 01       	movw	r24, r28
 1e2:	01 96       	adiw	r24, 0x01	; 1
 1e4:	0e 94 49 00 	call	0x92	; 0x92 <get_two_digits>

      if (mode == 24 && hrs <= 23) {
 1e8:	80 91 60 00 	lds	r24, 0x0060	; 0x800060 <__DATA_REGION_ORIGIN__>
 1ec:	88 31       	cpi	r24, 0x18	; 24
 1ee:	31 f4       	brne	.+12     	; 0x1fc <main+0x100>
 1f0:	89 81       	ldd	r24, Y+1	; 0x01
 1f2:	88 31       	cpi	r24, 0x18	; 24
 1f4:	68 f4       	brcc	.+26     	; 0x210 <main+0x114>
        hours_counter = hrs;
 1f6:	80 93 04 01 	sts	0x0104, r24	; 0x800104 <hours_counter>
        break;
 1fa:	24 c0       	rjmp	.+72     	; 0x244 <main+0x148>
      }

      if (mode == 12 && hrs >= 1 && hrs <= 12) {
 1fc:	8c 30       	cpi	r24, 0x0C	; 12
 1fe:	41 f4       	brne	.+16     	; 0x210 <main+0x114>
 200:	89 81       	ldd	r24, Y+1	; 0x01
 202:	9f ef       	ldi	r25, 0xFF	; 255
 204:	98 0f       	add	r25, r24
 206:	9c 30       	cpi	r25, 0x0C	; 12
 208:	18 f4       	brcc	.+6      	; 0x210 <main+0x114>
        hours_counter = hrs;
 20a:	80 93 04 01 	sts	0x0104, r24	; 0x800104 <hours_counter>
        break;
 20e:	1a c0       	rjmp	.+52     	; 0x244 <main+0x148>
      }

      LCD_clearscreen();
 210:	0e 94 b0 03 	call	0x760	; 0x760 <LCD_clearscreen>
      LCD_vSend_string("Invalid! Retry");
 214:	8e eb       	ldi	r24, 0xBE	; 190
 216:	90 e0       	ldi	r25, 0x00	; 0
 218:	0e 94 a1 03 	call	0x742	; 0x742 <LCD_vSend_string>
 21c:	2f ef       	ldi	r18, 0xFF	; 255
 21e:	88 ef       	ldi	r24, 0xF8	; 248
 220:	95 e1       	ldi	r25, 0x15	; 21
 222:	21 50       	subi	r18, 0x01	; 1
 224:	80 40       	sbci	r24, 0x00	; 0
 226:	90 40       	sbci	r25, 0x00	; 0
 228:	e1 f7       	brne	.-8      	; 0x222 <main+0x126>
 22a:	00 c0       	rjmp	.+0      	; 0x22c <main+0x130>
 22c:	00 00       	nop
      _delay_ms(900);
      LCD_clearscreen();
 22e:	0e 94 b0 03 	call	0x760	; 0x760 <LCD_clearscreen>
      LCD_vSend_string("Set Hours:");
 232:	83 eb       	ldi	r24, 0xB3	; 179
 234:	90 e0       	ldi	r25, 0x00	; 0
 236:	0e 94 a1 03 	call	0x742	; 0x742 <LCD_vSend_string>
      LCD_movecursor(2, 1);
 23a:	61 e0       	ldi	r22, 0x01	; 1
 23c:	82 e0       	ldi	r24, 0x02	; 2
 23e:	0e 94 ba 03 	call	0x774	; 0x774 <LCD_movecursor>
    }
 242:	ce cf       	rjmp	.-100    	; 0x1e0 <main+0xe4>

    // ================= SET MINUTES =================
    LCD_clearscreen();
 244:	0e 94 b0 03 	call	0x760	; 0x760 <LCD_clearscreen>
    LCD_vSend_string("Set Minutes:");
 248:	8d ec       	ldi	r24, 0xCD	; 205
 24a:	90 e0       	ldi	r25, 0x00	; 0
 24c:	0e 94 a1 03 	call	0x742	; 0x742 <LCD_vSend_string>
    LCD_movecursor(2, 1);
 250:	61 e0       	ldi	r22, 0x01	; 1
 252:	82 e0       	ldi	r24, 0x02	; 2
 254:	0e 94 ba 03 	call	0x774	; 0x774 <LCD_movecursor>
    get_two_digits(&minutes_counter);
 258:	85 e0       	ldi	r24, 0x05	; 5
 25a:	91 e0       	ldi	r25, 0x01	; 1
 25c:	0e 94 49 00 	call	0x92	; 0x92 <get_two_digits>

    // ================= SET SECONDS =================
    LCD_clearscreen();
 260:	0e 94 b0 03 	call	0x760	; 0x760 <LCD_clearscreen>
    LCD_vSend_string("Set Seconds:");
 264:	8a ed       	ldi	r24, 0xDA	; 218
 266:	90 e0       	ldi	r25, 0x00	; 0
 268:	0e 94 a1 03 	call	0x742	; 0x742 <LCD_vSend_string>
    LCD_movecursor(2, 1);
 26c:	61 e0       	ldi	r22, 0x01	; 1
 26e:	82 e0       	ldi	r24, 0x02	; 2
 270:	0e 94 ba 03 	call	0x774	; 0x774 <LCD_movecursor>
    get_two_digits(&seconds_counter);
 274:	86 e0       	ldi	r24, 0x06	; 6
 276:	91 e0       	ldi	r25, 0x01	; 1
 278:	0e 94 49 00 	call	0x92	; 0x92 <get_two_digits>

    // ===================== Final LCD =====================
    LCD_clearscreen();
 27c:	0e 94 b0 03 	call	0x760	; 0x760 <LCD_clearscreen>
    if (mode == 12) {
 280:	80 91 60 00 	lds	r24, 0x0060	; 0x800060 <__DATA_REGION_ORIGIN__>
 284:	8c 30       	cpi	r24, 0x0C	; 12
 286:	59 f4       	brne	.+22     	; 0x29e <main+0x1a2>
      LCD_vSend_string(am_pm ? "Mode: PM" : "Mode: AM");
 288:	80 91 03 01 	lds	r24, 0x0103	; 0x800103 <am_pm>
 28c:	81 11       	cpse	r24, r1
 28e:	03 c0       	rjmp	.+6      	; 0x296 <main+0x19a>
 290:	84 e8       	ldi	r24, 0x84	; 132
 292:	90 e0       	ldi	r25, 0x00	; 0
 294:	01 c0       	rjmp	.+2      	; 0x298 <main+0x19c>
 296:	c7 01       	movw	r24, r14
 298:	0e 94 a1 03 	call	0x742	; 0x742 <LCD_vSend_string>
 29c:	04 c0       	rjmp	.+8      	; 0x2a6 <main+0x1aa>
    } else
      LCD_vSend_string("24h Mode");
 29e:	87 ee       	ldi	r24, 0xE7	; 231
 2a0:	90 e0       	ldi	r25, 0x00	; 0
 2a2:	0e 94 a1 03 	call	0x742	; 0x742 <LCD_vSend_string>

    LCD_movecursor(2, 1);
 2a6:	61 e0       	ldi	r22, 0x01	; 1
 2a8:	82 e0       	ldi	r24, 0x02	; 2
 2aa:	0e 94 ba 03 	call	0x774	; 0x774 <LCD_movecursor>
    LCD_vSend_string("Press 0 to Reset");
 2ae:	80 ef       	ldi	r24, 0xF0	; 240
 2b0:	90 e0       	ldi	r25, 0x00	; 0
 2b2:	0e 94 a1 03 	call	0x742	; 0x742 <LCD_vSend_string>

    ampm_changed = 0;
 2b6:	10 92 02 01 	sts	0x0102, r1	; 0x800102 <__data_end>

      PORTC = 0b110111;
      seven_seg_write('B', minutes_counter / 10);
      _delay_ms(2);

      PORTC = 0b101111;
 2ba:	0f 2e       	mov	r0, r31
 2bc:	ff e2       	ldi	r31, 0x2F	; 47
 2be:	df 2e       	mov	r13, r31
 2c0:	f0 2d       	mov	r31, r0
      seven_seg_write('B', hours_counter % 10);
      _delay_ms(2);

      PORTC = 0b011111;
 2c2:	0f e1       	ldi	r16, 0x1F	; 31
    ampm_changed = 0;

    // ==================== RUN CLOCK =====================
    while (1) {
      // Reset?
      value = keypad_u8check_press();
 2c4:	0e 94 91 02 	call	0x522	; 0x522 <keypad_u8check_press>
 2c8:	80 93 09 01 	sts	0x0109, r24	; 0x800109 <value>
      if (value == '0')
 2cc:	80 33       	cpi	r24, 0x30	; 48
 2ce:	09 f4       	brne	.+2      	; 0x2d2 <main+0x1d6>
 2d0:	40 cf       	rjmp	.-384    	; 0x152 <main+0x56>
        break;

      // Multiplexing
      PORTC = 0b111110;
 2d2:	95 ba       	out	0x15, r9	; 21
      seven_seg_write('B', seconds_counter % 10);
 2d4:	60 91 06 01 	lds	r22, 0x0106	; 0x800106 <seconds_counter>
 2d8:	61 9f       	mul	r22, r17
 2da:	81 2d       	mov	r24, r1
 2dc:	11 24       	eor	r1, r1
 2de:	86 95       	lsr	r24
 2e0:	86 95       	lsr	r24
 2e2:	86 95       	lsr	r24
 2e4:	88 0f       	add	r24, r24
 2e6:	98 2f       	mov	r25, r24
 2e8:	99 0f       	add	r25, r25
 2ea:	99 0f       	add	r25, r25
 2ec:	89 0f       	add	r24, r25
 2ee:	68 1b       	sub	r22, r24
 2f0:	82 e4       	ldi	r24, 0x42	; 66
 2f2:	0e 94 dd 03 	call	0x7ba	; 0x7ba <seven_seg_write>
 2f6:	8f e9       	ldi	r24, 0x9F	; 159
 2f8:	9f e0       	ldi	r25, 0x0F	; 15
 2fa:	01 97       	sbiw	r24, 0x01	; 1
 2fc:	f1 f7       	brne	.-4      	; 0x2fa <main+0x1fe>
 2fe:	00 c0       	rjmp	.+0      	; 0x300 <main+0x204>
 300:	00 00       	nop
      _delay_ms(2);

      PORTC = 0b111101;
 302:	a5 ba       	out	0x15, r10	; 21
      seven_seg_write('B', seconds_counter / 10);
 304:	60 91 06 01 	lds	r22, 0x0106	; 0x800106 <seconds_counter>
 308:	61 9f       	mul	r22, r17
 30a:	61 2d       	mov	r22, r1
 30c:	11 24       	eor	r1, r1
 30e:	66 95       	lsr	r22
 310:	66 95       	lsr	r22
 312:	66 95       	lsr	r22
 314:	82 e4       	ldi	r24, 0x42	; 66
 316:	0e 94 dd 03 	call	0x7ba	; 0x7ba <seven_seg_write>
 31a:	8f e9       	ldi	r24, 0x9F	; 159
 31c:	9f e0       	ldi	r25, 0x0F	; 15
 31e:	01 97       	sbiw	r24, 0x01	; 1
 320:	f1 f7       	brne	.-4      	; 0x31e <main+0x222>
 322:	00 c0       	rjmp	.+0      	; 0x324 <main+0x228>
 324:	00 00       	nop
      _delay_ms(2);

      PORTC = 0b111011;
 326:	b5 ba       	out	0x15, r11	; 21
      seven_seg_write('B', minutes_counter % 10);
 328:	60 91 05 01 	lds	r22, 0x0105	; 0x800105 <minutes_counter>
 32c:	61 9f       	mul	r22, r17
 32e:	81 2d       	mov	r24, r1
 330:	11 24       	eor	r1, r1
 332:	86 95       	lsr	r24
 334:	86 95       	lsr	r24
 336:	86 95       	lsr	r24
 338:	88 0f       	add	r24, r24
 33a:	98 2f       	mov	r25, r24
 33c:	99 0f       	add	r25, r25
 33e:	99 0f       	add	r25, r25
 340:	89 0f       	add	r24, r25
 342:	68 1b       	sub	r22, r24
 344:	82 e4       	ldi	r24, 0x42	; 66
 346:	0e 94 dd 03 	call	0x7ba	; 0x7ba <seven_seg_write>
 34a:	8f e9       	ldi	r24, 0x9F	; 159
 34c:	9f e0       	ldi	r25, 0x0F	; 15
 34e:	01 97       	sbiw	r24, 0x01	; 1
 350:	f1 f7       	brne	.-4      	; 0x34e <main+0x252>
 352:	00 c0       	rjmp	.+0      	; 0x354 <main+0x258>
 354:	00 00       	nop
      _delay_ms(2);

      PORTC = 0b110111;
 356:	c5 ba       	out	0x15, r12	; 21
      seven_seg_write('B', minutes_counter / 10);
 358:	60 91 05 01 	lds	r22, 0x0105	; 0x800105 <minutes_counter>
 35c:	61 9f       	mul	r22, r17
 35e:	61 2d       	mov	r22, r1
 360:	11 24       	eor	r1, r1
 362:	66 95       	lsr	r22
 364:	66 95       	lsr	r22
 366:	66 95       	lsr	r22
 368:	82 e4       	ldi	r24, 0x42	; 66
 36a:	0e 94 dd 03 	call	0x7ba	; 0x7ba <seven_seg_write>
 36e:	8f e9       	ldi	r24, 0x9F	; 159
 370:	9f e0       	ldi	r25, 0x0F	; 15
 372:	01 97       	sbiw	r24, 0x01	; 1
 374:	f1 f7       	brne	.-4      	; 0x372 <main+0x276>
 376:	00 c0       	rjmp	.+0      	; 0x378 <main+0x27c>
 378:	00 00       	nop
      _delay_ms(2);

      PORTC = 0b101111;
 37a:	d5 ba       	out	0x15, r13	; 21
      seven_seg_write('B', hours_counter % 10);
 37c:	60 91 04 01 	lds	r22, 0x0104	; 0x800104 <hours_counter>
 380:	61 9f       	mul	r22, r17
 382:	81 2d       	mov	r24, r1
 384:	11 24       	eor	r1, r1
 386:	86 95       	lsr	r24
 388:	86 95       	lsr	r24
 38a:	86 95       	lsr	r24
 38c:	88 0f       	add	r24, r24
 38e:	98 2f       	mov	r25, r24
 390:	99 0f       	add	r25, r25
 392:	99 0f       	add	r25, r25
 394:	89 0f       	add	r24, r25
 396:	68 1b       	sub	r22, r24
 398:	82 e4       	ldi	r24, 0x42	; 66
 39a:	0e 94 dd 03 	call	0x7ba	; 0x7ba <seven_seg_write>
 39e:	8f e9       	ldi	r24, 0x9F	; 159
 3a0:	9f e0       	ldi	r25, 0x0F	; 15
 3a2:	01 97       	sbiw	r24, 0x01	; 1
 3a4:	f1 f7       	brne	.-4      	; 0x3a2 <main+0x2a6>
 3a6:	00 c0       	rjmp	.+0      	; 0x3a8 <main+0x2ac>
 3a8:	00 00       	nop
      _delay_ms(2);

      PORTC = 0b011111;
 3aa:	05 bb       	out	0x15, r16	; 21
      seven_seg_write('B', hours_counter / 10);
 3ac:	60 91 04 01 	lds	r22, 0x0104	; 0x800104 <hours_counter>
 3b0:	61 9f       	mul	r22, r17
 3b2:	61 2d       	mov	r22, r1
 3b4:	11 24       	eor	r1, r1
 3b6:	66 95       	lsr	r22
 3b8:	66 95       	lsr	r22
 3ba:	66 95       	lsr	r22
 3bc:	82 e4       	ldi	r24, 0x42	; 66
 3be:	0e 94 dd 03 	call	0x7ba	; 0x7ba <seven_seg_write>
 3c2:	8f e9       	ldi	r24, 0x9F	; 159
 3c4:	9f e0       	ldi	r25, 0x0F	; 15
 3c6:	01 97       	sbiw	r24, 0x01	; 1
 3c8:	f1 f7       	brne	.-4      	; 0x3c6 <main+0x2ca>
 3ca:	00 c0       	rjmp	.+0      	; 0x3cc <main+0x2d0>
 3cc:	00 00       	nop
      _delay_ms(2);

      // 12H MODE HANDLING
      if (mode == 12) {
 3ce:	80 91 60 00 	lds	r24, 0x0060	; 0x800060 <__DATA_REGION_ORIGIN__>
 3d2:	8c 30       	cpi	r24, 0x0C	; 12
 3d4:	09 f0       	breq	.+2      	; 0x3d8 <main+0x2dc>
 3d6:	76 cf       	rjmp	.-276    	; 0x2c4 <main+0x1c8>
        // Rollover
        if (hours_counter > 12)
 3d8:	80 91 04 01 	lds	r24, 0x0104	; 0x800104 <hours_counter>
 3dc:	8d 30       	cpi	r24, 0x0D	; 13
 3de:	20 f0       	brcs	.+8      	; 0x3e8 <main+0x2ec>
          hours_counter = 1;
 3e0:	81 e0       	ldi	r24, 0x01	; 1
 3e2:	80 93 04 01 	sts	0x0104, r24	; 0x800104 <hours_counter>
 3e6:	2c c0       	rjmp	.+88     	; 0x440 <__LOCK_REGION_LENGTH__+0x40>

        // Perfect AM/PM toggle at EXACT 12:00:00
        if (hours_counter == 12 && minutes_counter == 0 &&
 3e8:	8c 30       	cpi	r24, 0x0C	; 12
 3ea:	51 f5       	brne	.+84     	; 0x440 <__LOCK_REGION_LENGTH__+0x40>
 3ec:	80 91 05 01 	lds	r24, 0x0105	; 0x800105 <minutes_counter>
 3f0:	81 11       	cpse	r24, r1
 3f2:	26 c0       	rjmp	.+76     	; 0x440 <__LOCK_REGION_LENGTH__+0x40>
            seconds_counter == 0) {
 3f4:	80 91 06 01 	lds	r24, 0x0106	; 0x800106 <seconds_counter>
        // Rollover
        if (hours_counter > 12)
          hours_counter = 1;

        // Perfect AM/PM toggle at EXACT 12:00:00
        if (hours_counter == 12 && minutes_counter == 0 &&
 3f8:	81 11       	cpse	r24, r1
 3fa:	22 c0       	rjmp	.+68     	; 0x440 <__LOCK_REGION_LENGTH__+0x40>
            seconds_counter == 0) {
          if (!ampm_changed) // only once!
 3fc:	80 91 02 01 	lds	r24, 0x0102	; 0x800102 <__data_end>
 400:	81 11       	cpse	r24, r1
 402:	5f cf       	rjmp	.-322    	; 0x2c2 <main+0x1c6>
          {
            am_pm ^= 1;
 404:	80 91 03 01 	lds	r24, 0x0103	; 0x800103 <am_pm>
 408:	91 e0       	ldi	r25, 0x01	; 1
 40a:	89 27       	eor	r24, r25
 40c:	80 93 03 01 	sts	0x0103, r24	; 0x800103 <am_pm>
            ampm_changed = 1;
 410:	90 93 02 01 	sts	0x0102, r25	; 0x800102 <__data_end>

            LCD_clearscreen();
 414:	0e 94 b0 03 	call	0x760	; 0x760 <LCD_clearscreen>
            LCD_vSend_string(am_pm ? "Mode: PM" : "Mode: AM");
 418:	80 91 03 01 	lds	r24, 0x0103	; 0x800103 <am_pm>
 41c:	81 11       	cpse	r24, r1
 41e:	03 c0       	rjmp	.+6      	; 0x426 <__LOCK_REGION_LENGTH__+0x26>
 420:	84 e8       	ldi	r24, 0x84	; 132
 422:	90 e0       	ldi	r25, 0x00	; 0
 424:	02 c0       	rjmp	.+4      	; 0x42a <__LOCK_REGION_LENGTH__+0x2a>
 426:	87 2d       	mov	r24, r7
 428:	98 2d       	mov	r25, r8
 42a:	0e 94 a1 03 	call	0x742	; 0x742 <LCD_vSend_string>
            LCD_movecursor(2, 1);
 42e:	61 e0       	ldi	r22, 0x01	; 1
 430:	82 e0       	ldi	r24, 0x02	; 2
 432:	0e 94 ba 03 	call	0x774	; 0x774 <LCD_movecursor>
            LCD_vSend_string("Press 0 to Reset");
 436:	80 ef       	ldi	r24, 0xF0	; 240
 438:	90 e0       	ldi	r25, 0x00	; 0
 43a:	0e 94 a1 03 	call	0x742	; 0x742 <LCD_vSend_string>
 43e:	41 cf       	rjmp	.-382    	; 0x2c2 <main+0x1c6>
          }
        } else {
          ampm_changed = 0;
 440:	10 92 02 01 	sts	0x0102, r1	; 0x800102 <__data_end>
 444:	3e cf       	rjmp	.-388    	; 0x2c2 <main+0x1c6>

00000446 <__vector_5>:
/**
 * @brief  Timer2 Overflow Interrupt Service Routine.
 * @param  TIMER2_OVF_vect Interrupt vector.
 * @return None
 */
ISR(TIMER2_OVF_vect) {
 446:	1f 92       	push	r1
 448:	0f 92       	push	r0
 44a:	0f b6       	in	r0, 0x3f	; 63
 44c:	0f 92       	push	r0
 44e:	11 24       	eor	r1, r1
 450:	8f 93       	push	r24
  seconds_counter++;
 452:	80 91 06 01 	lds	r24, 0x0106	; 0x800106 <seconds_counter>
 456:	8f 5f       	subi	r24, 0xFF	; 255
 458:	80 93 06 01 	sts	0x0106, r24	; 0x800106 <seconds_counter>

  if (seconds_counter >= 60) {
 45c:	80 91 06 01 	lds	r24, 0x0106	; 0x800106 <seconds_counter>
 460:	8c 33       	cpi	r24, 0x3C	; 60
 462:	38 f0       	brcs	.+14     	; 0x472 <__vector_5+0x2c>
    seconds_counter = 0;
 464:	10 92 06 01 	sts	0x0106, r1	; 0x800106 <seconds_counter>
    minutes_counter++;
 468:	80 91 05 01 	lds	r24, 0x0105	; 0x800105 <minutes_counter>
 46c:	8f 5f       	subi	r24, 0xFF	; 255
 46e:	80 93 05 01 	sts	0x0105, r24	; 0x800105 <minutes_counter>
  }

  if (minutes_counter >= 60) {
 472:	80 91 05 01 	lds	r24, 0x0105	; 0x800105 <minutes_counter>
 476:	8c 33       	cpi	r24, 0x3C	; 60
 478:	38 f0       	brcs	.+14     	; 0x488 <__vector_5+0x42>
    minutes_counter = 0;
 47a:	10 92 05 01 	sts	0x0105, r1	; 0x800105 <minutes_counter>
    hours_counter++;
 47e:	80 91 04 01 	lds	r24, 0x0104	; 0x800104 <hours_counter>
 482:	8f 5f       	subi	r24, 0xFF	; 255
 484:	80 93 04 01 	sts	0x0104, r24	; 0x800104 <hours_counter>
  }

  if (mode == 24) {
 488:	80 91 60 00 	lds	r24, 0x0060	; 0x800060 <__DATA_REGION_ORIGIN__>
 48c:	88 31       	cpi	r24, 0x18	; 24
 48e:	31 f4       	brne	.+12     	; 0x49c <__vector_5+0x56>
    if (hours_counter >= 24)
 490:	80 91 04 01 	lds	r24, 0x0104	; 0x800104 <hours_counter>
 494:	88 31       	cpi	r24, 0x18	; 24
 496:	10 f0       	brcs	.+4      	; 0x49c <__vector_5+0x56>
      hours_counter = 0;
 498:	10 92 04 01 	sts	0x0104, r1	; 0x800104 <hours_counter>
  }
}
 49c:	8f 91       	pop	r24
 49e:	0f 90       	pop	r0
 4a0:	0f be       	out	0x3f, r0	; 63
 4a2:	0f 90       	pop	r0
 4a4:	1f 90       	pop	r1
 4a6:	18 95       	reti

000004a8 <keypad_vInit>:
 * @brief  Initialize the keypad driver.
 * @param  None
 * @return None
 */
void keypad_vInit() {
  DIO_vsetPINDir('D', 0, 1);
 4a8:	41 e0       	ldi	r20, 0x01	; 1
 4aa:	60 e0       	ldi	r22, 0x00	; 0
 4ac:	84 e4       	ldi	r24, 0x44	; 68
 4ae:	0e 94 02 04 	call	0x804	; 0x804 <DIO_vsetPINDir>
  DIO_vsetPINDir('D', 1, 1);
 4b2:	41 e0       	ldi	r20, 0x01	; 1
 4b4:	61 e0       	ldi	r22, 0x01	; 1
 4b6:	84 e4       	ldi	r24, 0x44	; 68
 4b8:	0e 94 02 04 	call	0x804	; 0x804 <DIO_vsetPINDir>
  DIO_vsetPINDir('D', 2, 1);
 4bc:	41 e0       	ldi	r20, 0x01	; 1
 4be:	62 e0       	ldi	r22, 0x02	; 2
 4c0:	84 e4       	ldi	r24, 0x44	; 68
 4c2:	0e 94 02 04 	call	0x804	; 0x804 <DIO_vsetPINDir>
  DIO_vsetPINDir('D', 3, 1);
 4c6:	41 e0       	ldi	r20, 0x01	; 1
 4c8:	63 e0       	ldi	r22, 0x03	; 3
 4ca:	84 e4       	ldi	r24, 0x44	; 68
 4cc:	0e 94 02 04 	call	0x804	; 0x804 <DIO_vsetPINDir>
  DIO_vsetPINDir('D', 4, 0);
 4d0:	40 e0       	ldi	r20, 0x00	; 0
 4d2:	64 e0       	ldi	r22, 0x04	; 4
 4d4:	84 e4       	ldi	r24, 0x44	; 68
 4d6:	0e 94 02 04 	call	0x804	; 0x804 <DIO_vsetPINDir>
  DIO_vsetPINDir('D', 5, 0);
 4da:	40 e0       	ldi	r20, 0x00	; 0
 4dc:	65 e0       	ldi	r22, 0x05	; 5
 4de:	84 e4       	ldi	r24, 0x44	; 68
 4e0:	0e 94 02 04 	call	0x804	; 0x804 <DIO_vsetPINDir>
  DIO_vsetPINDir('D', 6, 0);
 4e4:	40 e0       	ldi	r20, 0x00	; 0
 4e6:	66 e0       	ldi	r22, 0x06	; 6
 4e8:	84 e4       	ldi	r24, 0x44	; 68
 4ea:	0e 94 02 04 	call	0x804	; 0x804 <DIO_vsetPINDir>
  DIO_vsetPINDir('D', 7, 0);
 4ee:	40 e0       	ldi	r20, 0x00	; 0
 4f0:	67 e0       	ldi	r22, 0x07	; 7
 4f2:	84 e4       	ldi	r24, 0x44	; 68
 4f4:	0e 94 02 04 	call	0x804	; 0x804 <DIO_vsetPINDir>
  DIO_vconnectpullup('D', 4, 1);
 4f8:	41 e0       	ldi	r20, 0x01	; 1
 4fa:	64 e0       	ldi	r22, 0x04	; 4
 4fc:	84 e4       	ldi	r24, 0x44	; 68
 4fe:	0e 94 5d 05 	call	0xaba	; 0xaba <DIO_vconnectpullup>
  DIO_vconnectpullup('D', 5, 1);
 502:	41 e0       	ldi	r20, 0x01	; 1
 504:	65 e0       	ldi	r22, 0x05	; 5
 506:	84 e4       	ldi	r24, 0x44	; 68
 508:	0e 94 5d 05 	call	0xaba	; 0xaba <DIO_vconnectpullup>
  DIO_vconnectpullup('D', 6, 1);
 50c:	41 e0       	ldi	r20, 0x01	; 1
 50e:	66 e0       	ldi	r22, 0x06	; 6
 510:	84 e4       	ldi	r24, 0x44	; 68
 512:	0e 94 5d 05 	call	0xaba	; 0xaba <DIO_vconnectpullup>
  DIO_vconnectpullup('D', 7, 1);
 516:	41 e0       	ldi	r20, 0x01	; 1
 518:	67 e0       	ldi	r22, 0x07	; 7
 51a:	84 e4       	ldi	r24, 0x44	; 68
 51c:	0e 94 5d 05 	call	0xaba	; 0xaba <DIO_vconnectpullup>
 520:	08 95       	ret

00000522 <keypad_u8check_press>:
/**
 * @brief  Check for key press.
 * @param  None
 * @return The pressed key value or NOTPRESSED if no key is pressed.
 */
char keypad_u8check_press() {
 522:	0f 93       	push	r16
 524:	1f 93       	push	r17
 526:	cf 93       	push	r28
 528:	df 93       	push	r29
 52a:	cd b7       	in	r28, 0x3d	; 61
 52c:	de b7       	in	r29, 0x3e	; 62
 52e:	60 97       	sbiw	r28, 0x10	; 16
 530:	0f b6       	in	r0, 0x3f	; 63
 532:	f8 94       	cli
 534:	de bf       	out	0x3e, r29	; 62
 536:	0f be       	out	0x3f, r0	; 63
 538:	cd bf       	out	0x3d, r28	; 61
  char arr[4][4] = {{'7', '8', '9', '/'},
 53a:	80 e1       	ldi	r24, 0x10	; 16
 53c:	e1 e6       	ldi	r30, 0x61	; 97
 53e:	f0 e0       	ldi	r31, 0x00	; 0
 540:	de 01       	movw	r26, r28
 542:	11 96       	adiw	r26, 0x01	; 1
 544:	01 90       	ld	r0, Z+
 546:	0d 92       	st	X+, r0
 548:	8a 95       	dec	r24
 54a:	e1 f7       	brne	.-8      	; 0x544 <keypad_u8check_press+0x22>
                    {'4', '5', '6', '*'},
                    {'1', '2', '3', '-'},
                    {'A', '0', '=', '+'}};
  char row, coloumn, x;
  char returnval = NOTPRESSED;
  for (row = 0; row < 4; row++) {
 54c:	00 e0       	ldi	r16, 0x00	; 0
    DIO_write('D', 0, 1);
 54e:	41 e0       	ldi	r20, 0x01	; 1
 550:	60 e0       	ldi	r22, 0x00	; 0
 552:	84 e4       	ldi	r24, 0x44	; 68
 554:	0e 94 72 04 	call	0x8e4	; 0x8e4 <DIO_write>
    DIO_write('D', 1, 1);
 558:	41 e0       	ldi	r20, 0x01	; 1
 55a:	61 e0       	ldi	r22, 0x01	; 1
 55c:	84 e4       	ldi	r24, 0x44	; 68
 55e:	0e 94 72 04 	call	0x8e4	; 0x8e4 <DIO_write>
    DIO_write('D', 2, 1);
 562:	41 e0       	ldi	r20, 0x01	; 1
 564:	62 e0       	ldi	r22, 0x02	; 2
 566:	84 e4       	ldi	r24, 0x44	; 68
 568:	0e 94 72 04 	call	0x8e4	; 0x8e4 <DIO_write>
    DIO_write('D', 3, 1);
 56c:	41 e0       	ldi	r20, 0x01	; 1
 56e:	63 e0       	ldi	r22, 0x03	; 3
 570:	84 e4       	ldi	r24, 0x44	; 68
 572:	0e 94 72 04 	call	0x8e4	; 0x8e4 <DIO_write>
    DIO_write('D', row, 0);
 576:	40 e0       	ldi	r20, 0x00	; 0
 578:	60 2f       	mov	r22, r16
 57a:	84 e4       	ldi	r24, 0x44	; 68
 57c:	0e 94 72 04 	call	0x8e4	; 0x8e4 <DIO_write>

    for (coloumn = 0; coloumn < 4; coloumn++) {
 580:	10 e0       	ldi	r17, 0x00	; 0
      x = DIO_u8read('D', (coloumn + 4));
 582:	64 e0       	ldi	r22, 0x04	; 4
 584:	61 0f       	add	r22, r17
 586:	84 e4       	ldi	r24, 0x44	; 68
 588:	0e 94 e2 04 	call	0x9c4	; 0x9c4 <DIO_u8read>
      if (x == 0) {
 58c:	81 11       	cpse	r24, r1
 58e:	0d c0       	rjmp	.+26     	; 0x5aa <keypad_u8check_press+0x88>
        returnval = arr[row][coloumn];
 590:	e1 e0       	ldi	r30, 0x01	; 1
 592:	f0 e0       	ldi	r31, 0x00	; 0
 594:	ec 0f       	add	r30, r28
 596:	fd 1f       	adc	r31, r29
 598:	84 e0       	ldi	r24, 0x04	; 4
 59a:	08 9f       	mul	r16, r24
 59c:	e0 0d       	add	r30, r0
 59e:	f1 1d       	adc	r31, r1
 5a0:	11 24       	eor	r1, r1
 5a2:	e1 0f       	add	r30, r17
 5a4:	f1 1d       	adc	r31, r1
 5a6:	80 81       	ld	r24, Z
 5a8:	07 c0       	rjmp	.+14     	; 0x5b8 <keypad_u8check_press+0x96>
    DIO_write('D', 1, 1);
    DIO_write('D', 2, 1);
    DIO_write('D', 3, 1);
    DIO_write('D', row, 0);

    for (coloumn = 0; coloumn < 4; coloumn++) {
 5aa:	1f 5f       	subi	r17, 0xFF	; 255
 5ac:	14 30       	cpi	r17, 0x04	; 4
 5ae:	49 f7       	brne	.-46     	; 0x582 <keypad_u8check_press+0x60>
                    {'4', '5', '6', '*'},
                    {'1', '2', '3', '-'},
                    {'A', '0', '=', '+'}};
  char row, coloumn, x;
  char returnval = NOTPRESSED;
  for (row = 0; row < 4; row++) {
 5b0:	0f 5f       	subi	r16, 0xFF	; 255
 5b2:	04 30       	cpi	r16, 0x04	; 4
 5b4:	61 f6       	brne	.-104    	; 0x54e <keypad_u8check_press+0x2c>
 5b6:	8f ef       	ldi	r24, 0xFF	; 255
    if (x == 0) {
      break;
    }
  }
  return returnval;
 5b8:	60 96       	adiw	r28, 0x10	; 16
 5ba:	0f b6       	in	r0, 0x3f	; 63
 5bc:	f8 94       	cli
 5be:	de bf       	out	0x3e, r29	; 62
 5c0:	0f be       	out	0x3f, r0	; 63
 5c2:	cd bf       	out	0x3d, r28	; 61
 5c4:	df 91       	pop	r29
 5c6:	cf 91       	pop	r28
 5c8:	1f 91       	pop	r17
 5ca:	0f 91       	pop	r16
 5cc:	08 95       	ret

000005ce <send_falling_edge>:
 * @brief  Send a falling edge pulse on the Enable pin.
 * @param  None
 * @return None
 */
static void send_falling_edge(void) {
  DIO_write('A', EN, 1);
 5ce:	41 e0       	ldi	r20, 0x01	; 1
 5d0:	60 e0       	ldi	r22, 0x00	; 0
 5d2:	81 e4       	ldi	r24, 0x41	; 65
 5d4:	0e 94 72 04 	call	0x8e4	; 0x8e4 <DIO_write>
 5d8:	8f e9       	ldi	r24, 0x9F	; 159
 5da:	9f e0       	ldi	r25, 0x0F	; 15
 5dc:	01 97       	sbiw	r24, 0x01	; 1
 5de:	f1 f7       	brne	.-4      	; 0x5dc <send_falling_edge+0xe>
 5e0:	00 c0       	rjmp	.+0      	; 0x5e2 <send_falling_edge+0x14>
 5e2:	00 00       	nop
  _delay_ms(2);
  DIO_write('A', EN, 0);
 5e4:	40 e0       	ldi	r20, 0x00	; 0
 5e6:	60 e0       	ldi	r22, 0x00	; 0
 5e8:	81 e4       	ldi	r24, 0x41	; 65
 5ea:	0e 94 72 04 	call	0x8e4	; 0x8e4 <DIO_write>
 5ee:	8f e9       	ldi	r24, 0x9F	; 159
 5f0:	9f e0       	ldi	r25, 0x0F	; 15
 5f2:	01 97       	sbiw	r24, 0x01	; 1
 5f4:	f1 f7       	brne	.-4      	; 0x5f2 <send_falling_edge+0x24>
 5f6:	00 c0       	rjmp	.+0      	; 0x5f8 <send_falling_edge+0x2a>
 5f8:	00 00       	nop
 5fa:	08 95       	ret

000005fc <LCD_vSend_cmd>:
/**
 * @brief  Send a command to the LCD.
 * @param  cmd The command to send.
 * @return None
 */
void LCD_vSend_cmd(char cmd) {
 5fc:	cf 93       	push	r28
 5fe:	c8 2f       	mov	r28, r24
  DIO_write_port('A', cmd);
  DIO_write('B', RS, 0);
  send_falling_edge();

#elif defined four_bits_mode
  write_high_nibble('A', cmd >> 4);
 600:	68 2f       	mov	r22, r24
 602:	62 95       	swap	r22
 604:	6f 70       	andi	r22, 0x0F	; 15
 606:	81 e4       	ldi	r24, 0x41	; 65
 608:	0e 94 cd 05 	call	0xb9a	; 0xb9a <write_high_nibble>
  DIO_write('A', RS, 0);
 60c:	40 e0       	ldi	r20, 0x00	; 0
 60e:	62 e0       	ldi	r22, 0x02	; 2
 610:	81 e4       	ldi	r24, 0x41	; 65
 612:	0e 94 72 04 	call	0x8e4	; 0x8e4 <DIO_write>
  send_falling_edge();
 616:	0e 94 e7 02 	call	0x5ce	; 0x5ce <send_falling_edge>
  write_high_nibble('A', cmd);
 61a:	6c 2f       	mov	r22, r28
 61c:	81 e4       	ldi	r24, 0x41	; 65
 61e:	0e 94 cd 05 	call	0xb9a	; 0xb9a <write_high_nibble>
  DIO_write('A', RS, 0);
 622:	40 e0       	ldi	r20, 0x00	; 0
 624:	62 e0       	ldi	r22, 0x02	; 2
 626:	81 e4       	ldi	r24, 0x41	; 65
 628:	0e 94 72 04 	call	0x8e4	; 0x8e4 <DIO_write>
  send_falling_edge();
 62c:	0e 94 e7 02 	call	0x5ce	; 0x5ce <send_falling_edge>
 630:	8f ec       	ldi	r24, 0xCF	; 207
 632:	97 e0       	ldi	r25, 0x07	; 7
 634:	01 97       	sbiw	r24, 0x01	; 1
 636:	f1 f7       	brne	.-4      	; 0x634 <LCD_vSend_cmd+0x38>
 638:	00 c0       	rjmp	.+0      	; 0x63a <LCD_vSend_cmd+0x3e>
 63a:	00 00       	nop
#endif
  _delay_ms(1);
}
 63c:	cf 91       	pop	r28
 63e:	08 95       	ret

00000640 <LCD_vInit>:
 640:	2f ef       	ldi	r18, 0xFF	; 255
 642:	81 ee       	ldi	r24, 0xE1	; 225
 644:	94 e0       	ldi	r25, 0x04	; 4
 646:	21 50       	subi	r18, 0x01	; 1
 648:	80 40       	sbci	r24, 0x00	; 0
 64a:	90 40       	sbci	r25, 0x00	; 0
 64c:	e1 f7       	brne	.-8      	; 0x646 <LCD_vInit+0x6>
 64e:	00 c0       	rjmp	.+0      	; 0x650 <LCD_vInit+0x10>
 650:	00 00       	nop
  _delay_ms(10);
  LCD_vSend_cmd(ENTRY_MODE); // entry mode
  _delay_ms(1);

#elif defined four_bits_mode
  DIO_vsetPINDir('A', 4, 1);
 652:	41 e0       	ldi	r20, 0x01	; 1
 654:	64 e0       	ldi	r22, 0x04	; 4
 656:	81 e4       	ldi	r24, 0x41	; 65
 658:	0e 94 02 04 	call	0x804	; 0x804 <DIO_vsetPINDir>
  DIO_vsetPINDir('A', 5, 1);
 65c:	41 e0       	ldi	r20, 0x01	; 1
 65e:	65 e0       	ldi	r22, 0x05	; 5
 660:	81 e4       	ldi	r24, 0x41	; 65
 662:	0e 94 02 04 	call	0x804	; 0x804 <DIO_vsetPINDir>
  DIO_vsetPINDir('A', 6, 1);
 666:	41 e0       	ldi	r20, 0x01	; 1
 668:	66 e0       	ldi	r22, 0x06	; 6
 66a:	81 e4       	ldi	r24, 0x41	; 65
 66c:	0e 94 02 04 	call	0x804	; 0x804 <DIO_vsetPINDir>
  DIO_vsetPINDir('A', 7, 1);
 670:	41 e0       	ldi	r20, 0x01	; 1
 672:	67 e0       	ldi	r22, 0x07	; 7
 674:	81 e4       	ldi	r24, 0x41	; 65
 676:	0e 94 02 04 	call	0x804	; 0x804 <DIO_vsetPINDir>
  DIO_vsetPINDir('A', EN, 1);
 67a:	41 e0       	ldi	r20, 0x01	; 1
 67c:	60 e0       	ldi	r22, 0x00	; 0
 67e:	81 e4       	ldi	r24, 0x41	; 65
 680:	0e 94 02 04 	call	0x804	; 0x804 <DIO_vsetPINDir>
  DIO_vsetPINDir('A', RW, 1);
 684:	41 e0       	ldi	r20, 0x01	; 1
 686:	61 e0       	ldi	r22, 0x01	; 1
 688:	81 e4       	ldi	r24, 0x41	; 65
 68a:	0e 94 02 04 	call	0x804	; 0x804 <DIO_vsetPINDir>
  DIO_vsetPINDir('A', RS, 1);
 68e:	41 e0       	ldi	r20, 0x01	; 1
 690:	62 e0       	ldi	r22, 0x02	; 2
 692:	81 e4       	ldi	r24, 0x41	; 65
 694:	0e 94 02 04 	call	0x804	; 0x804 <DIO_vsetPINDir>
  DIO_write('A', RW, 0);
 698:	40 e0       	ldi	r20, 0x00	; 0
 69a:	61 e0       	ldi	r22, 0x01	; 1
 69c:	81 e4       	ldi	r24, 0x41	; 65
 69e:	0e 94 72 04 	call	0x8e4	; 0x8e4 <DIO_write>
  LCD_vSend_cmd(RETURN_HOME); // return home
 6a2:	82 e0       	ldi	r24, 0x02	; 2
 6a4:	0e 94 fe 02 	call	0x5fc	; 0x5fc <LCD_vSend_cmd>
 6a8:	8f e1       	ldi	r24, 0x1F	; 31
 6aa:	9e e4       	ldi	r25, 0x4E	; 78
 6ac:	01 97       	sbiw	r24, 0x01	; 1
 6ae:	f1 f7       	brne	.-4      	; 0x6ac <LCD_vInit+0x6c>
 6b0:	00 c0       	rjmp	.+0      	; 0x6b2 <LCD_vInit+0x72>
 6b2:	00 00       	nop
  _delay_ms(10);
  LCD_vSend_cmd(FOUR_BITS); // 4bit mode
 6b4:	88 e2       	ldi	r24, 0x28	; 40
 6b6:	0e 94 fe 02 	call	0x5fc	; 0x5fc <LCD_vSend_cmd>
 6ba:	8f ec       	ldi	r24, 0xCF	; 207
 6bc:	97 e0       	ldi	r25, 0x07	; 7
 6be:	01 97       	sbiw	r24, 0x01	; 1
 6c0:	f1 f7       	brne	.-4      	; 0x6be <LCD_vInit+0x7e>
 6c2:	00 c0       	rjmp	.+0      	; 0x6c4 <LCD_vInit+0x84>
 6c4:	00 00       	nop
  _delay_ms(1);
  LCD_vSend_cmd(CURSOR_ON_DISPLAN_ON); // display on cursor on
 6c6:	8e e0       	ldi	r24, 0x0E	; 14
 6c8:	0e 94 fe 02 	call	0x5fc	; 0x5fc <LCD_vSend_cmd>
 6cc:	8f ec       	ldi	r24, 0xCF	; 207
 6ce:	97 e0       	ldi	r25, 0x07	; 7
 6d0:	01 97       	sbiw	r24, 0x01	; 1
 6d2:	f1 f7       	brne	.-4      	; 0x6d0 <LCD_vInit+0x90>
 6d4:	00 c0       	rjmp	.+0      	; 0x6d6 <LCD_vInit+0x96>
 6d6:	00 00       	nop
  _delay_ms(1);
  LCD_vSend_cmd(CLR_SCREEN); // clear the screen
 6d8:	81 e0       	ldi	r24, 0x01	; 1
 6da:	0e 94 fe 02 	call	0x5fc	; 0x5fc <LCD_vSend_cmd>
 6de:	8f e1       	ldi	r24, 0x1F	; 31
 6e0:	9e e4       	ldi	r25, 0x4E	; 78
 6e2:	01 97       	sbiw	r24, 0x01	; 1
 6e4:	f1 f7       	brne	.-4      	; 0x6e2 <LCD_vInit+0xa2>
 6e6:	00 c0       	rjmp	.+0      	; 0x6e8 <LCD_vInit+0xa8>
 6e8:	00 00       	nop
  _delay_ms(10);
  LCD_vSend_cmd(ENTRY_MODE); // entry mode
 6ea:	86 e0       	ldi	r24, 0x06	; 6
 6ec:	0e 94 fe 02 	call	0x5fc	; 0x5fc <LCD_vSend_cmd>
 6f0:	8f ec       	ldi	r24, 0xCF	; 207
 6f2:	97 e0       	ldi	r25, 0x07	; 7
 6f4:	01 97       	sbiw	r24, 0x01	; 1
 6f6:	f1 f7       	brne	.-4      	; 0x6f4 <LCD_vInit+0xb4>
 6f8:	00 c0       	rjmp	.+0      	; 0x6fa <LCD_vInit+0xba>
 6fa:	00 00       	nop
 6fc:	08 95       	ret

000006fe <LCD_vSend_char>:
/**
 * @brief  Send a character to the LCD.
 * @param  data The character to send.
 * @return None
 */
void LCD_vSend_char(char data) {
 6fe:	cf 93       	push	r28
 700:	c8 2f       	mov	r28, r24
  DIO_write_port('A', data);
  DIO_write('B', RS, 1);
  send_falling_edge();

#elif defined four_bits_mode
  write_high_nibble('A', data >> 4);
 702:	68 2f       	mov	r22, r24
 704:	62 95       	swap	r22
 706:	6f 70       	andi	r22, 0x0F	; 15
 708:	81 e4       	ldi	r24, 0x41	; 65
 70a:	0e 94 cd 05 	call	0xb9a	; 0xb9a <write_high_nibble>
  DIO_write('A', RS, 1);
 70e:	41 e0       	ldi	r20, 0x01	; 1
 710:	62 e0       	ldi	r22, 0x02	; 2
 712:	81 e4       	ldi	r24, 0x41	; 65
 714:	0e 94 72 04 	call	0x8e4	; 0x8e4 <DIO_write>
  send_falling_edge();
 718:	0e 94 e7 02 	call	0x5ce	; 0x5ce <send_falling_edge>
  write_high_nibble('A', data);
 71c:	6c 2f       	mov	r22, r28
 71e:	81 e4       	ldi	r24, 0x41	; 65
 720:	0e 94 cd 05 	call	0xb9a	; 0xb9a <write_high_nibble>
  DIO_write('A', RS, 1);
 724:	41 e0       	ldi	r20, 0x01	; 1
 726:	62 e0       	ldi	r22, 0x02	; 2
 728:	81 e4       	ldi	r24, 0x41	; 65
 72a:	0e 94 72 04 	call	0x8e4	; 0x8e4 <DIO_write>
  send_falling_edge();
 72e:	0e 94 e7 02 	call	0x5ce	; 0x5ce <send_falling_edge>
 732:	8f ec       	ldi	r24, 0xCF	; 207
 734:	97 e0       	ldi	r25, 0x07	; 7
 736:	01 97       	sbiw	r24, 0x01	; 1
 738:	f1 f7       	brne	.-4      	; 0x736 <LCD_vSend_char+0x38>
 73a:	00 c0       	rjmp	.+0      	; 0x73c <LCD_vSend_char+0x3e>
 73c:	00 00       	nop
#endif
  _delay_ms(1);
}
 73e:	cf 91       	pop	r28
 740:	08 95       	ret

00000742 <LCD_vSend_string>:
/**
 * @brief  Send a string to the LCD.
 * @param  data Pointer to the string.
 * @return None
 */
void LCD_vSend_string(char *data) {
 742:	cf 93       	push	r28
 744:	df 93       	push	r29
 746:	ec 01       	movw	r28, r24
  while ((*data) != '\0') {
 748:	88 81       	ld	r24, Y
 74a:	88 23       	and	r24, r24
 74c:	31 f0       	breq	.+12     	; 0x75a <LCD_vSend_string+0x18>
 74e:	21 96       	adiw	r28, 0x01	; 1
    LCD_vSend_char(*data);
 750:	0e 94 7f 03 	call	0x6fe	; 0x6fe <LCD_vSend_char>
 * @brief  Send a string to the LCD.
 * @param  data Pointer to the string.
 * @return None
 */
void LCD_vSend_string(char *data) {
  while ((*data) != '\0') {
 754:	89 91       	ld	r24, Y+
 756:	81 11       	cpse	r24, r1
 758:	fb cf       	rjmp	.-10     	; 0x750 <LCD_vSend_string+0xe>
    LCD_vSend_char(*data);
    data++;
  }
}
 75a:	df 91       	pop	r29
 75c:	cf 91       	pop	r28
 75e:	08 95       	ret

00000760 <LCD_clearscreen>:
 * @brief  Clear the LCD screen.
 * @param  None
 * @return None
 */
void LCD_clearscreen() {
  LCD_vSend_cmd(CLR_SCREEN);
 760:	81 e0       	ldi	r24, 0x01	; 1
 762:	0e 94 fe 02 	call	0x5fc	; 0x5fc <LCD_vSend_cmd>
 766:	8f e1       	ldi	r24, 0x1F	; 31
 768:	9e e4       	ldi	r25, 0x4E	; 78
 76a:	01 97       	sbiw	r24, 0x01	; 1
 76c:	f1 f7       	brne	.-4      	; 0x76a <LCD_clearscreen+0xa>
 76e:	00 c0       	rjmp	.+0      	; 0x770 <LCD_clearscreen+0x10>
 770:	00 00       	nop
 772:	08 95       	ret

00000774 <LCD_movecursor>:
 * @param  coloumn The column number (1-16).
 * @return None
 */
void LCD_movecursor(char row, char coloumn) {
  char data;
  if (row > 2 || row < 1 || coloumn > 16 || coloumn < 1) {
 774:	9f ef       	ldi	r25, 0xFF	; 255
 776:	98 0f       	add	r25, r24
 778:	92 30       	cpi	r25, 0x02	; 2
 77a:	70 f4       	brcc	.+28     	; 0x798 <LCD_movecursor+0x24>
 77c:	9f ef       	ldi	r25, 0xFF	; 255
 77e:	96 0f       	add	r25, r22
 780:	90 31       	cpi	r25, 0x10	; 16
 782:	60 f4       	brcc	.+24     	; 0x79c <LCD_movecursor+0x28>
    data = 0x80;
  } else if (row == 1) {
 784:	81 30       	cpi	r24, 0x01	; 1
 786:	19 f4       	brne	.+6      	; 0x78e <LCD_movecursor+0x1a>
    data = 0x80 + coloumn - 1;
 788:	2f e7       	ldi	r18, 0x7F	; 127
 78a:	26 0f       	add	r18, r22
 78c:	08 c0       	rjmp	.+16     	; 0x79e <LCD_movecursor+0x2a>
  } else if (row == 2) {
 78e:	82 30       	cpi	r24, 0x02	; 2
 790:	31 f4       	brne	.+12     	; 0x79e <LCD_movecursor+0x2a>
    data = 0xc0 + coloumn - 1;
 792:	2f eb       	ldi	r18, 0xBF	; 191
 794:	26 0f       	add	r18, r22
 796:	03 c0       	rjmp	.+6      	; 0x79e <LCD_movecursor+0x2a>
 * @return None
 */
void LCD_movecursor(char row, char coloumn) {
  char data;
  if (row > 2 || row < 1 || coloumn > 16 || coloumn < 1) {
    data = 0x80;
 798:	20 e8       	ldi	r18, 0x80	; 128
 79a:	01 c0       	rjmp	.+2      	; 0x79e <LCD_movecursor+0x2a>
 79c:	20 e8       	ldi	r18, 0x80	; 128
  } else if (row == 1) {
    data = 0x80 + coloumn - 1;
  } else if (row == 2) {
    data = 0xc0 + coloumn - 1;
  }
  LCD_vSend_cmd(data);
 79e:	82 2f       	mov	r24, r18
 7a0:	0e 94 fe 02 	call	0x5fc	; 0x5fc <LCD_vSend_cmd>
 7a4:	8f ec       	ldi	r24, 0xCF	; 207
 7a6:	97 e0       	ldi	r25, 0x07	; 7
 7a8:	01 97       	sbiw	r24, 0x01	; 1
 7aa:	f1 f7       	brne	.-4      	; 0x7a8 <LCD_movecursor+0x34>
 7ac:	00 c0       	rjmp	.+0      	; 0x7ae <LCD_movecursor+0x3a>
 7ae:	00 00       	nop
 7b0:	08 95       	ret

000007b2 <seven_seg_vinit>:
 * @brief  Initialize the seven segment driver.
 * @param  port_name The port name ('A', 'B', 'C', 'D').
 * @return None
 */
void seven_seg_vinit(unsigned char port_name) {
  DIO_set_port_direction(port_name, 0xFF);
 7b2:	6f ef       	ldi	r22, 0xFF	; 255
 7b4:	0e 94 37 05 	call	0xa6e	; 0xa6e <DIO_set_port_direction>
 7b8:	08 95       	ret

000007ba <seven_seg_write>:
 * @brief  Write a number to the seven segment display.
 * @param  portname The port name ('A', 'B', 'C', 'D').
 * @param  number The number to display (0-9).
 * @return None
 */
void seven_seg_write(unsigned char portname, unsigned char number) {
 7ba:	cf 93       	push	r28
 7bc:	df 93       	push	r29
 7be:	cd b7       	in	r28, 0x3d	; 61
 7c0:	de b7       	in	r29, 0x3e	; 62
 7c2:	2a 97       	sbiw	r28, 0x0a	; 10
 7c4:	0f b6       	in	r0, 0x3f	; 63
 7c6:	f8 94       	cli
 7c8:	de bf       	out	0x3e, r29	; 62
 7ca:	0f be       	out	0x3f, r0	; 63
 7cc:	cd bf       	out	0x3d, r28	; 61
  unsigned char arr[] = {0x3f, 0x06, 0x5b, 0x4f, 0x66,
 7ce:	9a e0       	ldi	r25, 0x0A	; 10
 7d0:	e1 e7       	ldi	r30, 0x71	; 113
 7d2:	f0 e0       	ldi	r31, 0x00	; 0
 7d4:	de 01       	movw	r26, r28
 7d6:	11 96       	adiw	r26, 0x01	; 1
 7d8:	01 90       	ld	r0, Z+
 7da:	0d 92       	st	X+, r0
 7dc:	9a 95       	dec	r25
 7de:	e1 f7       	brne	.-8      	; 0x7d8 <seven_seg_write+0x1e>
                         0x6d, 0x7d, 0x47, 0x7f, 0x6f};
  DIO_write_port(portname, arr[number]);
 7e0:	e1 e0       	ldi	r30, 0x01	; 1
 7e2:	f0 e0       	ldi	r31, 0x00	; 0
 7e4:	ec 0f       	add	r30, r28
 7e6:	fd 1f       	adc	r31, r29
 7e8:	e6 0f       	add	r30, r22
 7ea:	f1 1d       	adc	r31, r1
 7ec:	60 81       	ld	r22, Z
 7ee:	0e 94 4a 05 	call	0xa94	; 0xa94 <DIO_write_port>
 7f2:	2a 96       	adiw	r28, 0x0a	; 10
 7f4:	0f b6       	in	r0, 0x3f	; 63
 7f6:	f8 94       	cli
 7f8:	de bf       	out	0x3e, r29	; 62
 7fa:	0f be       	out	0x3f, r0	; 63
 7fc:	cd bf       	out	0x3d, r28	; 61
 7fe:	df 91       	pop	r29
 800:	cf 91       	pop	r28
 802:	08 95       	ret

00000804 <DIO_vsetPINDir>:
  case 'C':
    PORTC &= 0xf0;
    PORTC |= value;
  case 'D':
    PORTD &= 0xf0;
    PORTD |= value;
 804:	82 34       	cpi	r24, 0x42	; 66
 806:	19 f1       	breq	.+70     	; 0x84e <DIO_vsetPINDir+0x4a>
 808:	18 f4       	brcc	.+6      	; 0x810 <DIO_vsetPINDir+0xc>
 80a:	81 34       	cpi	r24, 0x41	; 65
 80c:	39 f0       	breq	.+14     	; 0x81c <DIO_vsetPINDir+0x18>
 80e:	08 95       	ret
 810:	83 34       	cpi	r24, 0x43	; 67
 812:	b1 f1       	breq	.+108    	; 0x880 <__stack+0x21>
 814:	84 34       	cpi	r24, 0x44	; 68
 816:	09 f4       	brne	.+2      	; 0x81a <DIO_vsetPINDir+0x16>
 818:	4c c0       	rjmp	.+152    	; 0x8b2 <__stack+0x53>
 81a:	08 95       	ret
 81c:	41 30       	cpi	r20, 0x01	; 1
 81e:	59 f4       	brne	.+22     	; 0x836 <DIO_vsetPINDir+0x32>
 820:	2a b3       	in	r18, 0x1a	; 26
 822:	81 e0       	ldi	r24, 0x01	; 1
 824:	90 e0       	ldi	r25, 0x00	; 0
 826:	02 c0       	rjmp	.+4      	; 0x82c <DIO_vsetPINDir+0x28>
 828:	88 0f       	add	r24, r24
 82a:	99 1f       	adc	r25, r25
 82c:	6a 95       	dec	r22
 82e:	e2 f7       	brpl	.-8      	; 0x828 <DIO_vsetPINDir+0x24>
 830:	82 2b       	or	r24, r18
 832:	8a bb       	out	0x1a, r24	; 26
 834:	08 95       	ret
 836:	2a b3       	in	r18, 0x1a	; 26
 838:	81 e0       	ldi	r24, 0x01	; 1
 83a:	90 e0       	ldi	r25, 0x00	; 0
 83c:	02 c0       	rjmp	.+4      	; 0x842 <DIO_vsetPINDir+0x3e>
 83e:	88 0f       	add	r24, r24
 840:	99 1f       	adc	r25, r25
 842:	6a 95       	dec	r22
 844:	e2 f7       	brpl	.-8      	; 0x83e <DIO_vsetPINDir+0x3a>
 846:	80 95       	com	r24
 848:	82 23       	and	r24, r18
 84a:	8a bb       	out	0x1a, r24	; 26
 84c:	08 95       	ret
 84e:	41 30       	cpi	r20, 0x01	; 1
 850:	59 f4       	brne	.+22     	; 0x868 <__stack+0x9>
 852:	27 b3       	in	r18, 0x17	; 23
 854:	81 e0       	ldi	r24, 0x01	; 1
 856:	90 e0       	ldi	r25, 0x00	; 0
 858:	02 c0       	rjmp	.+4      	; 0x85e <DIO_vsetPINDir+0x5a>
 85a:	88 0f       	add	r24, r24
 85c:	99 1f       	adc	r25, r25
 85e:	6a 95       	dec	r22
 860:	e2 f7       	brpl	.-8      	; 0x85a <DIO_vsetPINDir+0x56>
 862:	82 2b       	or	r24, r18
 864:	87 bb       	out	0x17, r24	; 23
 866:	08 95       	ret
 868:	27 b3       	in	r18, 0x17	; 23
 86a:	81 e0       	ldi	r24, 0x01	; 1
 86c:	90 e0       	ldi	r25, 0x00	; 0
 86e:	02 c0       	rjmp	.+4      	; 0x874 <__stack+0x15>
 870:	88 0f       	add	r24, r24
 872:	99 1f       	adc	r25, r25
 874:	6a 95       	dec	r22
 876:	e2 f7       	brpl	.-8      	; 0x870 <__stack+0x11>
 878:	80 95       	com	r24
 87a:	82 23       	and	r24, r18
 87c:	87 bb       	out	0x17, r24	; 23
 87e:	08 95       	ret
 880:	41 30       	cpi	r20, 0x01	; 1
 882:	59 f4       	brne	.+22     	; 0x89a <__stack+0x3b>
 884:	24 b3       	in	r18, 0x14	; 20
 886:	81 e0       	ldi	r24, 0x01	; 1
 888:	90 e0       	ldi	r25, 0x00	; 0
 88a:	02 c0       	rjmp	.+4      	; 0x890 <__stack+0x31>
 88c:	88 0f       	add	r24, r24
 88e:	99 1f       	adc	r25, r25
 890:	6a 95       	dec	r22
 892:	e2 f7       	brpl	.-8      	; 0x88c <__stack+0x2d>
 894:	82 2b       	or	r24, r18
 896:	84 bb       	out	0x14, r24	; 20
 898:	08 95       	ret
 89a:	24 b3       	in	r18, 0x14	; 20
 89c:	81 e0       	ldi	r24, 0x01	; 1
 89e:	90 e0       	ldi	r25, 0x00	; 0
 8a0:	02 c0       	rjmp	.+4      	; 0x8a6 <__stack+0x47>
 8a2:	88 0f       	add	r24, r24
 8a4:	99 1f       	adc	r25, r25
 8a6:	6a 95       	dec	r22
 8a8:	e2 f7       	brpl	.-8      	; 0x8a2 <__stack+0x43>
 8aa:	80 95       	com	r24
 8ac:	82 23       	and	r24, r18
 8ae:	84 bb       	out	0x14, r24	; 20
 8b0:	08 95       	ret
 8b2:	41 30       	cpi	r20, 0x01	; 1
 8b4:	59 f4       	brne	.+22     	; 0x8cc <__stack+0x6d>
 8b6:	21 b3       	in	r18, 0x11	; 17
 8b8:	81 e0       	ldi	r24, 0x01	; 1
 8ba:	90 e0       	ldi	r25, 0x00	; 0
 8bc:	02 c0       	rjmp	.+4      	; 0x8c2 <__stack+0x63>
 8be:	88 0f       	add	r24, r24
 8c0:	99 1f       	adc	r25, r25
 8c2:	6a 95       	dec	r22
 8c4:	e2 f7       	brpl	.-8      	; 0x8be <__stack+0x5f>
 8c6:	82 2b       	or	r24, r18
 8c8:	81 bb       	out	0x11, r24	; 17
 8ca:	08 95       	ret
 8cc:	21 b3       	in	r18, 0x11	; 17
 8ce:	81 e0       	ldi	r24, 0x01	; 1
 8d0:	90 e0       	ldi	r25, 0x00	; 0
 8d2:	02 c0       	rjmp	.+4      	; 0x8d8 <__stack+0x79>
 8d4:	88 0f       	add	r24, r24
 8d6:	99 1f       	adc	r25, r25
 8d8:	6a 95       	dec	r22
 8da:	e2 f7       	brpl	.-8      	; 0x8d4 <__stack+0x75>
 8dc:	80 95       	com	r24
 8de:	82 23       	and	r24, r18
 8e0:	81 bb       	out	0x11, r24	; 17
 8e2:	08 95       	ret

000008e4 <DIO_write>:
 8e4:	82 34       	cpi	r24, 0x42	; 66
 8e6:	19 f1       	breq	.+70     	; 0x92e <DIO_write+0x4a>
 8e8:	18 f4       	brcc	.+6      	; 0x8f0 <DIO_write+0xc>
 8ea:	81 34       	cpi	r24, 0x41	; 65
 8ec:	39 f0       	breq	.+14     	; 0x8fc <DIO_write+0x18>
 8ee:	08 95       	ret
 8f0:	83 34       	cpi	r24, 0x43	; 67
 8f2:	b1 f1       	breq	.+108    	; 0x960 <DIO_write+0x7c>
 8f4:	84 34       	cpi	r24, 0x44	; 68
 8f6:	09 f4       	brne	.+2      	; 0x8fa <DIO_write+0x16>
 8f8:	4c c0       	rjmp	.+152    	; 0x992 <DIO_write+0xae>
 8fa:	08 95       	ret
 8fc:	41 30       	cpi	r20, 0x01	; 1
 8fe:	59 f4       	brne	.+22     	; 0x916 <DIO_write+0x32>
 900:	2b b3       	in	r18, 0x1b	; 27
 902:	81 e0       	ldi	r24, 0x01	; 1
 904:	90 e0       	ldi	r25, 0x00	; 0
 906:	02 c0       	rjmp	.+4      	; 0x90c <DIO_write+0x28>
 908:	88 0f       	add	r24, r24
 90a:	99 1f       	adc	r25, r25
 90c:	6a 95       	dec	r22
 90e:	e2 f7       	brpl	.-8      	; 0x908 <DIO_write+0x24>
 910:	82 2b       	or	r24, r18
 912:	8b bb       	out	0x1b, r24	; 27
 914:	08 95       	ret
 916:	2b b3       	in	r18, 0x1b	; 27
 918:	81 e0       	ldi	r24, 0x01	; 1
 91a:	90 e0       	ldi	r25, 0x00	; 0
 91c:	02 c0       	rjmp	.+4      	; 0x922 <DIO_write+0x3e>
 91e:	88 0f       	add	r24, r24
 920:	99 1f       	adc	r25, r25
 922:	6a 95       	dec	r22
 924:	e2 f7       	brpl	.-8      	; 0x91e <DIO_write+0x3a>
 926:	80 95       	com	r24
 928:	82 23       	and	r24, r18
 92a:	8b bb       	out	0x1b, r24	; 27
 92c:	08 95       	ret
 92e:	41 30       	cpi	r20, 0x01	; 1
 930:	59 f4       	brne	.+22     	; 0x948 <DIO_write+0x64>
 932:	28 b3       	in	r18, 0x18	; 24
 934:	81 e0       	ldi	r24, 0x01	; 1
 936:	90 e0       	ldi	r25, 0x00	; 0
 938:	02 c0       	rjmp	.+4      	; 0x93e <DIO_write+0x5a>
 93a:	88 0f       	add	r24, r24
 93c:	99 1f       	adc	r25, r25
 93e:	6a 95       	dec	r22
 940:	e2 f7       	brpl	.-8      	; 0x93a <DIO_write+0x56>
 942:	82 2b       	or	r24, r18
 944:	88 bb       	out	0x18, r24	; 24
 946:	08 95       	ret
 948:	28 b3       	in	r18, 0x18	; 24
 94a:	81 e0       	ldi	r24, 0x01	; 1
 94c:	90 e0       	ldi	r25, 0x00	; 0
 94e:	02 c0       	rjmp	.+4      	; 0x954 <DIO_write+0x70>
 950:	88 0f       	add	r24, r24
 952:	99 1f       	adc	r25, r25
 954:	6a 95       	dec	r22
 956:	e2 f7       	brpl	.-8      	; 0x950 <DIO_write+0x6c>
 958:	80 95       	com	r24
 95a:	82 23       	and	r24, r18
 95c:	88 bb       	out	0x18, r24	; 24
 95e:	08 95       	ret
 960:	41 30       	cpi	r20, 0x01	; 1
 962:	59 f4       	brne	.+22     	; 0x97a <DIO_write+0x96>
 964:	25 b3       	in	r18, 0x15	; 21
 966:	81 e0       	ldi	r24, 0x01	; 1
 968:	90 e0       	ldi	r25, 0x00	; 0
 96a:	02 c0       	rjmp	.+4      	; 0x970 <DIO_write+0x8c>
 96c:	88 0f       	add	r24, r24
 96e:	99 1f       	adc	r25, r25
 970:	6a 95       	dec	r22
 972:	e2 f7       	brpl	.-8      	; 0x96c <DIO_write+0x88>
 974:	82 2b       	or	r24, r18
 976:	85 bb       	out	0x15, r24	; 21
 978:	08 95       	ret
 97a:	25 b3       	in	r18, 0x15	; 21
 97c:	81 e0       	ldi	r24, 0x01	; 1
 97e:	90 e0       	ldi	r25, 0x00	; 0
 980:	02 c0       	rjmp	.+4      	; 0x986 <DIO_write+0xa2>
 982:	88 0f       	add	r24, r24
 984:	99 1f       	adc	r25, r25
 986:	6a 95       	dec	r22
 988:	e2 f7       	brpl	.-8      	; 0x982 <DIO_write+0x9e>
 98a:	80 95       	com	r24
 98c:	82 23       	and	r24, r18
 98e:	85 bb       	out	0x15, r24	; 21
 990:	08 95       	ret
 992:	41 30       	cpi	r20, 0x01	; 1
 994:	59 f4       	brne	.+22     	; 0x9ac <DIO_write+0xc8>
 996:	22 b3       	in	r18, 0x12	; 18
 998:	81 e0       	ldi	r24, 0x01	; 1
 99a:	90 e0       	ldi	r25, 0x00	; 0
 99c:	02 c0       	rjmp	.+4      	; 0x9a2 <DIO_write+0xbe>
 99e:	88 0f       	add	r24, r24
 9a0:	99 1f       	adc	r25, r25
 9a2:	6a 95       	dec	r22
 9a4:	e2 f7       	brpl	.-8      	; 0x99e <DIO_write+0xba>
 9a6:	82 2b       	or	r24, r18
 9a8:	82 bb       	out	0x12, r24	; 18
 9aa:	08 95       	ret
 9ac:	22 b3       	in	r18, 0x12	; 18
 9ae:	81 e0       	ldi	r24, 0x01	; 1
 9b0:	90 e0       	ldi	r25, 0x00	; 0
 9b2:	02 c0       	rjmp	.+4      	; 0x9b8 <DIO_write+0xd4>
 9b4:	88 0f       	add	r24, r24
 9b6:	99 1f       	adc	r25, r25
 9b8:	6a 95       	dec	r22
 9ba:	e2 f7       	brpl	.-8      	; 0x9b4 <DIO_write+0xd0>
 9bc:	80 95       	com	r24
 9be:	82 23       	and	r24, r18
 9c0:	82 bb       	out	0x12, r24	; 18
 9c2:	08 95       	ret

000009c4 <DIO_u8read>:
 9c4:	82 34       	cpi	r24, 0x42	; 66
 9c6:	d9 f0       	breq	.+54     	; 0x9fe <DIO_u8read+0x3a>
 9c8:	18 f4       	brcc	.+6      	; 0x9d0 <DIO_u8read+0xc>
 9ca:	81 34       	cpi	r24, 0x41	; 65
 9cc:	31 f0       	breq	.+12     	; 0x9da <DIO_u8read+0x16>
 9ce:	4d c0       	rjmp	.+154    	; 0xa6a <DIO_u8read+0xa6>
 9d0:	83 34       	cpi	r24, 0x43	; 67
 9d2:	39 f1       	breq	.+78     	; 0xa22 <DIO_u8read+0x5e>
 9d4:	84 34       	cpi	r24, 0x44	; 68
 9d6:	b9 f1       	breq	.+110    	; 0xa46 <DIO_u8read+0x82>
 9d8:	48 c0       	rjmp	.+144    	; 0xa6a <DIO_u8read+0xa6>
 9da:	29 b3       	in	r18, 0x19	; 25
 9dc:	81 e0       	ldi	r24, 0x01	; 1
 9de:	90 e0       	ldi	r25, 0x00	; 0
 9e0:	06 2e       	mov	r0, r22
 9e2:	02 c0       	rjmp	.+4      	; 0x9e8 <DIO_u8read+0x24>
 9e4:	88 0f       	add	r24, r24
 9e6:	99 1f       	adc	r25, r25
 9e8:	0a 94       	dec	r0
 9ea:	e2 f7       	brpl	.-8      	; 0x9e4 <DIO_u8read+0x20>
 9ec:	30 e0       	ldi	r19, 0x00	; 0
 9ee:	82 23       	and	r24, r18
 9f0:	93 23       	and	r25, r19
 9f2:	02 c0       	rjmp	.+4      	; 0x9f8 <DIO_u8read+0x34>
 9f4:	95 95       	asr	r25
 9f6:	87 95       	ror	r24
 9f8:	6a 95       	dec	r22
 9fa:	e2 f7       	brpl	.-8      	; 0x9f4 <DIO_u8read+0x30>
 9fc:	08 95       	ret
 9fe:	26 b3       	in	r18, 0x16	; 22
 a00:	81 e0       	ldi	r24, 0x01	; 1
 a02:	90 e0       	ldi	r25, 0x00	; 0
 a04:	06 2e       	mov	r0, r22
 a06:	02 c0       	rjmp	.+4      	; 0xa0c <DIO_u8read+0x48>
 a08:	88 0f       	add	r24, r24
 a0a:	99 1f       	adc	r25, r25
 a0c:	0a 94       	dec	r0
 a0e:	e2 f7       	brpl	.-8      	; 0xa08 <DIO_u8read+0x44>
 a10:	30 e0       	ldi	r19, 0x00	; 0
 a12:	82 23       	and	r24, r18
 a14:	93 23       	and	r25, r19
 a16:	02 c0       	rjmp	.+4      	; 0xa1c <DIO_u8read+0x58>
 a18:	95 95       	asr	r25
 a1a:	87 95       	ror	r24
 a1c:	6a 95       	dec	r22
 a1e:	e2 f7       	brpl	.-8      	; 0xa18 <DIO_u8read+0x54>
 a20:	08 95       	ret
 a22:	23 b3       	in	r18, 0x13	; 19
 a24:	81 e0       	ldi	r24, 0x01	; 1
 a26:	90 e0       	ldi	r25, 0x00	; 0
 a28:	06 2e       	mov	r0, r22
 a2a:	02 c0       	rjmp	.+4      	; 0xa30 <DIO_u8read+0x6c>
 a2c:	88 0f       	add	r24, r24
 a2e:	99 1f       	adc	r25, r25
 a30:	0a 94       	dec	r0
 a32:	e2 f7       	brpl	.-8      	; 0xa2c <DIO_u8read+0x68>
 a34:	30 e0       	ldi	r19, 0x00	; 0
 a36:	82 23       	and	r24, r18
 a38:	93 23       	and	r25, r19
 a3a:	02 c0       	rjmp	.+4      	; 0xa40 <DIO_u8read+0x7c>
 a3c:	95 95       	asr	r25
 a3e:	87 95       	ror	r24
 a40:	6a 95       	dec	r22
 a42:	e2 f7       	brpl	.-8      	; 0xa3c <DIO_u8read+0x78>
 a44:	08 95       	ret
 a46:	20 b3       	in	r18, 0x10	; 16
 a48:	81 e0       	ldi	r24, 0x01	; 1
 a4a:	90 e0       	ldi	r25, 0x00	; 0
 a4c:	06 2e       	mov	r0, r22
 a4e:	02 c0       	rjmp	.+4      	; 0xa54 <DIO_u8read+0x90>
 a50:	88 0f       	add	r24, r24
 a52:	99 1f       	adc	r25, r25
 a54:	0a 94       	dec	r0
 a56:	e2 f7       	brpl	.-8      	; 0xa50 <DIO_u8read+0x8c>
 a58:	30 e0       	ldi	r19, 0x00	; 0
 a5a:	82 23       	and	r24, r18
 a5c:	93 23       	and	r25, r19
 a5e:	02 c0       	rjmp	.+4      	; 0xa64 <DIO_u8read+0xa0>
 a60:	95 95       	asr	r25
 a62:	87 95       	ror	r24
 a64:	6a 95       	dec	r22
 a66:	e2 f7       	brpl	.-8      	; 0xa60 <DIO_u8read+0x9c>
 a68:	08 95       	ret
 a6a:	80 e0       	ldi	r24, 0x00	; 0
 a6c:	08 95       	ret

00000a6e <DIO_set_port_direction>:
 a6e:	82 34       	cpi	r24, 0x42	; 66
 a70:	59 f0       	breq	.+22     	; 0xa88 <DIO_set_port_direction+0x1a>
 a72:	18 f4       	brcc	.+6      	; 0xa7a <DIO_set_port_direction+0xc>
 a74:	81 34       	cpi	r24, 0x41	; 65
 a76:	31 f0       	breq	.+12     	; 0xa84 <DIO_set_port_direction+0x16>
 a78:	08 95       	ret
 a7a:	83 34       	cpi	r24, 0x43	; 67
 a7c:	39 f0       	breq	.+14     	; 0xa8c <DIO_set_port_direction+0x1e>
 a7e:	84 34       	cpi	r24, 0x44	; 68
 a80:	39 f0       	breq	.+14     	; 0xa90 <DIO_set_port_direction+0x22>
 a82:	08 95       	ret
 a84:	6a bb       	out	0x1a, r22	; 26
 a86:	08 95       	ret
 a88:	67 bb       	out	0x17, r22	; 23
 a8a:	08 95       	ret
 a8c:	64 bb       	out	0x14, r22	; 20
 a8e:	08 95       	ret
 a90:	61 bb       	out	0x11, r22	; 17
 a92:	08 95       	ret

00000a94 <DIO_write_port>:
 a94:	82 34       	cpi	r24, 0x42	; 66
 a96:	59 f0       	breq	.+22     	; 0xaae <DIO_write_port+0x1a>
 a98:	18 f4       	brcc	.+6      	; 0xaa0 <DIO_write_port+0xc>
 a9a:	81 34       	cpi	r24, 0x41	; 65
 a9c:	31 f0       	breq	.+12     	; 0xaaa <DIO_write_port+0x16>
 a9e:	08 95       	ret
 aa0:	83 34       	cpi	r24, 0x43	; 67
 aa2:	39 f0       	breq	.+14     	; 0xab2 <DIO_write_port+0x1e>
 aa4:	84 34       	cpi	r24, 0x44	; 68
 aa6:	39 f0       	breq	.+14     	; 0xab6 <DIO_write_port+0x22>
 aa8:	08 95       	ret
 aaa:	6b bb       	out	0x1b, r22	; 27
 aac:	08 95       	ret
 aae:	68 bb       	out	0x18, r22	; 24
 ab0:	08 95       	ret
 ab2:	65 bb       	out	0x15, r22	; 21
 ab4:	08 95       	ret
 ab6:	62 bb       	out	0x12, r22	; 18
 ab8:	08 95       	ret

00000aba <DIO_vconnectpullup>:
 aba:	82 34       	cpi	r24, 0x42	; 66
 abc:	19 f1       	breq	.+70     	; 0xb04 <DIO_vconnectpullup+0x4a>
 abe:	18 f4       	brcc	.+6      	; 0xac6 <DIO_vconnectpullup+0xc>
 ac0:	81 34       	cpi	r24, 0x41	; 65
 ac2:	39 f0       	breq	.+14     	; 0xad2 <DIO_vconnectpullup+0x18>
 ac4:	08 95       	ret
 ac6:	83 34       	cpi	r24, 0x43	; 67
 ac8:	b1 f1       	breq	.+108    	; 0xb36 <DIO_vconnectpullup+0x7c>
 aca:	84 34       	cpi	r24, 0x44	; 68
 acc:	09 f4       	brne	.+2      	; 0xad0 <DIO_vconnectpullup+0x16>
 ace:	4c c0       	rjmp	.+152    	; 0xb68 <DIO_vconnectpullup+0xae>
 ad0:	08 95       	ret
 ad2:	41 30       	cpi	r20, 0x01	; 1
 ad4:	59 f4       	brne	.+22     	; 0xaec <DIO_vconnectpullup+0x32>
 ad6:	2b b3       	in	r18, 0x1b	; 27
 ad8:	81 e0       	ldi	r24, 0x01	; 1
 ada:	90 e0       	ldi	r25, 0x00	; 0
 adc:	02 c0       	rjmp	.+4      	; 0xae2 <DIO_vconnectpullup+0x28>
 ade:	88 0f       	add	r24, r24
 ae0:	99 1f       	adc	r25, r25
 ae2:	6a 95       	dec	r22
 ae4:	e2 f7       	brpl	.-8      	; 0xade <DIO_vconnectpullup+0x24>
 ae6:	82 2b       	or	r24, r18
 ae8:	8b bb       	out	0x1b, r24	; 27
 aea:	08 95       	ret
 aec:	2b b3       	in	r18, 0x1b	; 27
 aee:	81 e0       	ldi	r24, 0x01	; 1
 af0:	90 e0       	ldi	r25, 0x00	; 0
 af2:	02 c0       	rjmp	.+4      	; 0xaf8 <DIO_vconnectpullup+0x3e>
 af4:	88 0f       	add	r24, r24
 af6:	99 1f       	adc	r25, r25
 af8:	6a 95       	dec	r22
 afa:	e2 f7       	brpl	.-8      	; 0xaf4 <DIO_vconnectpullup+0x3a>
 afc:	80 95       	com	r24
 afe:	82 23       	and	r24, r18
 b00:	8b bb       	out	0x1b, r24	; 27
 b02:	08 95       	ret
 b04:	41 30       	cpi	r20, 0x01	; 1
 b06:	59 f4       	brne	.+22     	; 0xb1e <DIO_vconnectpullup+0x64>
 b08:	28 b3       	in	r18, 0x18	; 24
 b0a:	81 e0       	ldi	r24, 0x01	; 1
 b0c:	90 e0       	ldi	r25, 0x00	; 0
 b0e:	02 c0       	rjmp	.+4      	; 0xb14 <DIO_vconnectpullup+0x5a>
 b10:	88 0f       	add	r24, r24
 b12:	99 1f       	adc	r25, r25
 b14:	6a 95       	dec	r22
 b16:	e2 f7       	brpl	.-8      	; 0xb10 <DIO_vconnectpullup+0x56>
 b18:	82 2b       	or	r24, r18
 b1a:	88 bb       	out	0x18, r24	; 24
 b1c:	08 95       	ret
 b1e:	28 b3       	in	r18, 0x18	; 24
 b20:	81 e0       	ldi	r24, 0x01	; 1
 b22:	90 e0       	ldi	r25, 0x00	; 0
 b24:	02 c0       	rjmp	.+4      	; 0xb2a <DIO_vconnectpullup+0x70>
 b26:	88 0f       	add	r24, r24
 b28:	99 1f       	adc	r25, r25
 b2a:	6a 95       	dec	r22
 b2c:	e2 f7       	brpl	.-8      	; 0xb26 <DIO_vconnectpullup+0x6c>
 b2e:	80 95       	com	r24
 b30:	82 23       	and	r24, r18
 b32:	88 bb       	out	0x18, r24	; 24
 b34:	08 95       	ret
 b36:	41 30       	cpi	r20, 0x01	; 1
 b38:	59 f4       	brne	.+22     	; 0xb50 <DIO_vconnectpullup+0x96>
 b3a:	25 b3       	in	r18, 0x15	; 21
 b3c:	81 e0       	ldi	r24, 0x01	; 1
 b3e:	90 e0       	ldi	r25, 0x00	; 0
 b40:	02 c0       	rjmp	.+4      	; 0xb46 <DIO_vconnectpullup+0x8c>
 b42:	88 0f       	add	r24, r24
 b44:	99 1f       	adc	r25, r25
 b46:	6a 95       	dec	r22
 b48:	e2 f7       	brpl	.-8      	; 0xb42 <DIO_vconnectpullup+0x88>
 b4a:	82 2b       	or	r24, r18
 b4c:	85 bb       	out	0x15, r24	; 21
 b4e:	08 95       	ret
 b50:	25 b3       	in	r18, 0x15	; 21
 b52:	81 e0       	ldi	r24, 0x01	; 1
 b54:	90 e0       	ldi	r25, 0x00	; 0
 b56:	02 c0       	rjmp	.+4      	; 0xb5c <DIO_vconnectpullup+0xa2>
 b58:	88 0f       	add	r24, r24
 b5a:	99 1f       	adc	r25, r25
 b5c:	6a 95       	dec	r22
 b5e:	e2 f7       	brpl	.-8      	; 0xb58 <DIO_vconnectpullup+0x9e>
 b60:	80 95       	com	r24
 b62:	82 23       	and	r24, r18
 b64:	85 bb       	out	0x15, r24	; 21
 b66:	08 95       	ret
 b68:	41 30       	cpi	r20, 0x01	; 1
 b6a:	59 f4       	brne	.+22     	; 0xb82 <DIO_vconnectpullup+0xc8>
 b6c:	22 b3       	in	r18, 0x12	; 18
 b6e:	81 e0       	ldi	r24, 0x01	; 1
 b70:	90 e0       	ldi	r25, 0x00	; 0
 b72:	02 c0       	rjmp	.+4      	; 0xb78 <DIO_vconnectpullup+0xbe>
 b74:	88 0f       	add	r24, r24
 b76:	99 1f       	adc	r25, r25
 b78:	6a 95       	dec	r22
 b7a:	e2 f7       	brpl	.-8      	; 0xb74 <DIO_vconnectpullup+0xba>
 b7c:	82 2b       	or	r24, r18
 b7e:	82 bb       	out	0x12, r24	; 18
 b80:	08 95       	ret
 b82:	22 b3       	in	r18, 0x12	; 18
 b84:	81 e0       	ldi	r24, 0x01	; 1
 b86:	90 e0       	ldi	r25, 0x00	; 0
 b88:	02 c0       	rjmp	.+4      	; 0xb8e <DIO_vconnectpullup+0xd4>
 b8a:	88 0f       	add	r24, r24
 b8c:	99 1f       	adc	r25, r25
 b8e:	6a 95       	dec	r22
 b90:	e2 f7       	brpl	.-8      	; 0xb8a <DIO_vconnectpullup+0xd0>
 b92:	80 95       	com	r24
 b94:	82 23       	and	r24, r18
 b96:	82 bb       	out	0x12, r24	; 18
 b98:	08 95       	ret

00000b9a <write_high_nibble>:
 * @param  portname The port name ('A', 'B', 'C', 'D').
 * @param  value The value to write (upper 4 bits).
 * @return None
 */
void write_high_nibble(unsigned char portname, unsigned char value) {
  value <<= 4;
 b9a:	62 95       	swap	r22
 b9c:	60 7f       	andi	r22, 0xF0	; 240
  switch (portname) {
 b9e:	82 34       	cpi	r24, 0x42	; 66
 ba0:	79 f0       	breq	.+30     	; 0xbc0 <write_high_nibble+0x26>
 ba2:	18 f4       	brcc	.+6      	; 0xbaa <write_high_nibble+0x10>
 ba4:	81 34       	cpi	r24, 0x41	; 65
 ba6:	31 f0       	breq	.+12     	; 0xbb4 <write_high_nibble+0x1a>
 ba8:	08 95       	ret
 baa:	83 34       	cpi	r24, 0x43	; 67
 bac:	79 f0       	breq	.+30     	; 0xbcc <write_high_nibble+0x32>
 bae:	84 34       	cpi	r24, 0x44	; 68
 bb0:	99 f0       	breq	.+38     	; 0xbd8 <write_high_nibble+0x3e>
 bb2:	08 95       	ret
  case 'A':
    PORTA &= 0x0f;
 bb4:	8b b3       	in	r24, 0x1b	; 27
 bb6:	8f 70       	andi	r24, 0x0F	; 15
 bb8:	8b bb       	out	0x1b, r24	; 27
    PORTA |= value;
 bba:	8b b3       	in	r24, 0x1b	; 27
 bbc:	86 2b       	or	r24, r22
 bbe:	8b bb       	out	0x1b, r24	; 27
  case 'B':
    PORTB &= 0x0f;
 bc0:	88 b3       	in	r24, 0x18	; 24
 bc2:	8f 70       	andi	r24, 0x0F	; 15
 bc4:	88 bb       	out	0x18, r24	; 24
    PORTB |= value;
 bc6:	88 b3       	in	r24, 0x18	; 24
 bc8:	86 2b       	or	r24, r22
 bca:	88 bb       	out	0x18, r24	; 24
  case 'C':
    PORTC &= 0x0f;
 bcc:	85 b3       	in	r24, 0x15	; 21
 bce:	8f 70       	andi	r24, 0x0F	; 15
 bd0:	85 bb       	out	0x15, r24	; 21
    PORTC |= value;
 bd2:	85 b3       	in	r24, 0x15	; 21
 bd4:	86 2b       	or	r24, r22
 bd6:	85 bb       	out	0x15, r24	; 21
  case 'D':
    PORTD &= 0x0f;
 bd8:	82 b3       	in	r24, 0x12	; 18
 bda:	8f 70       	andi	r24, 0x0F	; 15
 bdc:	82 bb       	out	0x12, r24	; 18
    PORTD |= value;
 bde:	82 b3       	in	r24, 0x12	; 18
 be0:	68 2b       	or	r22, r24
 be2:	62 bb       	out	0x12, r22	; 18
 be4:	08 95       	ret

00000be6 <timer2_overflow_init_interrupt>:
 * @param  None
 * @return None
 */
void timer2_overflow_init_interrupt(void) {
  /* select timer clock */
  SET_BIT(ASSR, AS2);
 be6:	82 b5       	in	r24, 0x22	; 34
 be8:	88 60       	ori	r24, 0x08	; 8
 bea:	82 bd       	out	0x22, r24	; 34
  /* select timer pre scalar */
  SET_BIT(TCCR2, CS20);
 bec:	85 b5       	in	r24, 0x25	; 37
 bee:	81 60       	ori	r24, 0x01	; 1
 bf0:	85 bd       	out	0x25, r24	; 37
  SET_BIT(TCCR2, CS22);
 bf2:	85 b5       	in	r24, 0x25	; 37
 bf4:	84 60       	ori	r24, 0x04	; 4
 bf6:	85 bd       	out	0x25, r24	; 37
  /* enable interrupt*/
  sei();
 bf8:	78 94       	sei
  SET_BIT(TIMSK, TOIE2);
 bfa:	89 b7       	in	r24, 0x39	; 57
 bfc:	80 64       	ori	r24, 0x40	; 64
 bfe:	89 bf       	out	0x39, r24	; 57
 c00:	08 95       	ret

00000c02 <_exit>:
 c02:	f8 94       	cli

00000c04 <__stop_program>:
 c04:	ff cf       	rjmp	.-2      	; 0xc04 <__stop_program>
